
Practica_2.elf:     file format elf32-littlearm

Sections:
Idx Name          Size      VMA       LMA       File off  Algn
  0 .isr_vector   000001ac  08000000  08000000  00010000  2**0
                  CONTENTS, ALLOC, LOAD, READONLY, DATA
  1 .text         00001ae8  080001ac  080001ac  000101ac  2**2
                  CONTENTS, ALLOC, LOAD, READONLY, CODE
  2 .rodata       0000003c  08001c94  08001c94  00011c94  2**2
                  CONTENTS, ALLOC, LOAD, READONLY, DATA
  3 .ARM.extab    00000000  08001cd0  08001cd0  0002000c  2**0
                  CONTENTS
  4 .ARM          00000008  08001cd0  08001cd0  00011cd0  2**2
                  CONTENTS, ALLOC, LOAD, READONLY, DATA
  5 .preinit_array 00000000  08001cd8  08001cd8  0002000c  2**0
                  CONTENTS, ALLOC, LOAD, DATA
  6 .init_array   00000004  08001cd8  08001cd8  00011cd8  2**2
                  CONTENTS, ALLOC, LOAD, DATA
  7 .fini_array   00000004  08001cdc  08001cdc  00011cdc  2**2
                  CONTENTS, ALLOC, LOAD, DATA
  8 .data         0000000c  20000000  08001ce0  00020000  2**2
                  CONTENTS, ALLOC, LOAD, DATA
  9 .ccmram       00000000  10000000  10000000  0002000c  2**0
                  CONTENTS
 10 .bss          000007a0  2000000c  2000000c  0002000c  2**2
                  ALLOC
 11 ._user_heap_stack 00000604  200007ac  200007ac  0002000c  2**0
                  ALLOC
 12 .ARM.attributes 00000030  00000000  00000000  0002000c  2**0
                  CONTENTS, READONLY
 13 .comment      00000043  00000000  00000000  0002003c  2**0
                  CONTENTS, READONLY
 14 .debug_frame  000000ac  00000000  00000000  00020080  2**2
                  CONTENTS, READONLY, DEBUGGING, OCTETS

Disassembly of section .text:

080001ac <__do_global_dtors_aux>:
 80001ac:	b510      	push	{r4, lr}
 80001ae:	4c05      	ldr	r4, [pc, #20]	; (80001c4 <__do_global_dtors_aux+0x18>)
 80001b0:	7823      	ldrb	r3, [r4, #0]
 80001b2:	b933      	cbnz	r3, 80001c2 <__do_global_dtors_aux+0x16>
 80001b4:	4b04      	ldr	r3, [pc, #16]	; (80001c8 <__do_global_dtors_aux+0x1c>)
 80001b6:	b113      	cbz	r3, 80001be <__do_global_dtors_aux+0x12>
 80001b8:	4804      	ldr	r0, [pc, #16]	; (80001cc <__do_global_dtors_aux+0x20>)
 80001ba:	f3af 8000 	nop.w
 80001be:	2301      	movs	r3, #1
 80001c0:	7023      	strb	r3, [r4, #0]
 80001c2:	bd10      	pop	{r4, pc}
 80001c4:	2000000c 	.word	0x2000000c
 80001c8:	00000000 	.word	0x00000000
 80001cc:	08001c7c 	.word	0x08001c7c

080001d0 <frame_dummy>:
 80001d0:	b508      	push	{r3, lr}
 80001d2:	4b03      	ldr	r3, [pc, #12]	; (80001e0 <frame_dummy+0x10>)
 80001d4:	b11b      	cbz	r3, 80001de <frame_dummy+0xe>
 80001d6:	4903      	ldr	r1, [pc, #12]	; (80001e4 <frame_dummy+0x14>)
 80001d8:	4803      	ldr	r0, [pc, #12]	; (80001e8 <frame_dummy+0x18>)
 80001da:	f3af 8000 	nop.w
 80001de:	bd08      	pop	{r3, pc}
 80001e0:	00000000 	.word	0x00000000
 80001e4:	20000010 	.word	0x20000010
 80001e8:	08001c7c 	.word	0x08001c7c

080001ec <__aeabi_uldivmod>:
 80001ec:	b953      	cbnz	r3, 8000204 <__aeabi_uldivmod+0x18>
 80001ee:	b94a      	cbnz	r2, 8000204 <__aeabi_uldivmod+0x18>
 80001f0:	2900      	cmp	r1, #0
 80001f2:	bf08      	it	eq
 80001f4:	2800      	cmpeq	r0, #0
 80001f6:	bf1c      	itt	ne
 80001f8:	f04f 31ff 	movne.w	r1, #4294967295	; 0xffffffff
 80001fc:	f04f 30ff 	movne.w	r0, #4294967295	; 0xffffffff
 8000200:	f000 b970 	b.w	80004e4 <__aeabi_idiv0>
 8000204:	f1ad 0c08 	sub.w	ip, sp, #8
 8000208:	e96d ce04 	strd	ip, lr, [sp, #-16]!
 800020c:	f000 f806 	bl	800021c <__udivmoddi4>
 8000210:	f8dd e004 	ldr.w	lr, [sp, #4]
 8000214:	e9dd 2302 	ldrd	r2, r3, [sp, #8]
 8000218:	b004      	add	sp, #16
 800021a:	4770      	bx	lr

0800021c <__udivmoddi4>:
 800021c:	e92d 47f0 	stmdb	sp!, {r4, r5, r6, r7, r8, r9, sl, lr}
 8000220:	9e08      	ldr	r6, [sp, #32]
 8000222:	460d      	mov	r5, r1
 8000224:	4604      	mov	r4, r0
 8000226:	460f      	mov	r7, r1
 8000228:	2b00      	cmp	r3, #0
 800022a:	d14a      	bne.n	80002c2 <__udivmoddi4+0xa6>
 800022c:	428a      	cmp	r2, r1
 800022e:	4694      	mov	ip, r2
 8000230:	d965      	bls.n	80002fe <__udivmoddi4+0xe2>
 8000232:	fab2 f382 	clz	r3, r2
 8000236:	b143      	cbz	r3, 800024a <__udivmoddi4+0x2e>
 8000238:	fa02 fc03 	lsl.w	ip, r2, r3
 800023c:	f1c3 0220 	rsb	r2, r3, #32
 8000240:	409f      	lsls	r7, r3
 8000242:	fa20 f202 	lsr.w	r2, r0, r2
 8000246:	4317      	orrs	r7, r2
 8000248:	409c      	lsls	r4, r3
 800024a:	ea4f 4e1c 	mov.w	lr, ip, lsr #16
 800024e:	fa1f f58c 	uxth.w	r5, ip
 8000252:	fbb7 f1fe 	udiv	r1, r7, lr
 8000256:	0c22      	lsrs	r2, r4, #16
 8000258:	fb0e 7711 	mls	r7, lr, r1, r7
 800025c:	ea42 4207 	orr.w	r2, r2, r7, lsl #16
 8000260:	fb01 f005 	mul.w	r0, r1, r5
 8000264:	4290      	cmp	r0, r2
 8000266:	d90a      	bls.n	800027e <__udivmoddi4+0x62>
 8000268:	eb1c 0202 	adds.w	r2, ip, r2
 800026c:	f101 37ff 	add.w	r7, r1, #4294967295	; 0xffffffff
 8000270:	f080 811c 	bcs.w	80004ac <__udivmoddi4+0x290>
 8000274:	4290      	cmp	r0, r2
 8000276:	f240 8119 	bls.w	80004ac <__udivmoddi4+0x290>
 800027a:	3902      	subs	r1, #2
 800027c:	4462      	add	r2, ip
 800027e:	1a12      	subs	r2, r2, r0
 8000280:	b2a4      	uxth	r4, r4
 8000282:	fbb2 f0fe 	udiv	r0, r2, lr
 8000286:	fb0e 2210 	mls	r2, lr, r0, r2
 800028a:	ea44 4402 	orr.w	r4, r4, r2, lsl #16
 800028e:	fb00 f505 	mul.w	r5, r0, r5
 8000292:	42a5      	cmp	r5, r4
 8000294:	d90a      	bls.n	80002ac <__udivmoddi4+0x90>
 8000296:	eb1c 0404 	adds.w	r4, ip, r4
 800029a:	f100 32ff 	add.w	r2, r0, #4294967295	; 0xffffffff
 800029e:	f080 8107 	bcs.w	80004b0 <__udivmoddi4+0x294>
 80002a2:	42a5      	cmp	r5, r4
 80002a4:	f240 8104 	bls.w	80004b0 <__udivmoddi4+0x294>
 80002a8:	4464      	add	r4, ip
 80002aa:	3802      	subs	r0, #2
 80002ac:	ea40 4001 	orr.w	r0, r0, r1, lsl #16
 80002b0:	1b64      	subs	r4, r4, r5
 80002b2:	2100      	movs	r1, #0
 80002b4:	b11e      	cbz	r6, 80002be <__udivmoddi4+0xa2>
 80002b6:	40dc      	lsrs	r4, r3
 80002b8:	2300      	movs	r3, #0
 80002ba:	e9c6 4300 	strd	r4, r3, [r6]
 80002be:	e8bd 87f0 	ldmia.w	sp!, {r4, r5, r6, r7, r8, r9, sl, pc}
 80002c2:	428b      	cmp	r3, r1
 80002c4:	d908      	bls.n	80002d8 <__udivmoddi4+0xbc>
 80002c6:	2e00      	cmp	r6, #0
 80002c8:	f000 80ed 	beq.w	80004a6 <__udivmoddi4+0x28a>
 80002cc:	2100      	movs	r1, #0
 80002ce:	e9c6 0500 	strd	r0, r5, [r6]
 80002d2:	4608      	mov	r0, r1
 80002d4:	e8bd 87f0 	ldmia.w	sp!, {r4, r5, r6, r7, r8, r9, sl, pc}
 80002d8:	fab3 f183 	clz	r1, r3
 80002dc:	2900      	cmp	r1, #0
 80002de:	d149      	bne.n	8000374 <__udivmoddi4+0x158>
 80002e0:	42ab      	cmp	r3, r5
 80002e2:	d302      	bcc.n	80002ea <__udivmoddi4+0xce>
 80002e4:	4282      	cmp	r2, r0
 80002e6:	f200 80f8 	bhi.w	80004da <__udivmoddi4+0x2be>
 80002ea:	1a84      	subs	r4, r0, r2
 80002ec:	eb65 0203 	sbc.w	r2, r5, r3
 80002f0:	2001      	movs	r0, #1
 80002f2:	4617      	mov	r7, r2
 80002f4:	2e00      	cmp	r6, #0
 80002f6:	d0e2      	beq.n	80002be <__udivmoddi4+0xa2>
 80002f8:	e9c6 4700 	strd	r4, r7, [r6]
 80002fc:	e7df      	b.n	80002be <__udivmoddi4+0xa2>
 80002fe:	b902      	cbnz	r2, 8000302 <__udivmoddi4+0xe6>
 8000300:	deff      	udf	#255	; 0xff
 8000302:	fab2 f382 	clz	r3, r2
 8000306:	2b00      	cmp	r3, #0
 8000308:	f040 8090 	bne.w	800042c <__udivmoddi4+0x210>
 800030c:	1a8a      	subs	r2, r1, r2
 800030e:	ea4f 471c 	mov.w	r7, ip, lsr #16
 8000312:	fa1f fe8c 	uxth.w	lr, ip
 8000316:	2101      	movs	r1, #1
 8000318:	fbb2 f5f7 	udiv	r5, r2, r7
 800031c:	fb07 2015 	mls	r0, r7, r5, r2
 8000320:	0c22      	lsrs	r2, r4, #16
 8000322:	ea42 4200 	orr.w	r2, r2, r0, lsl #16
 8000326:	fb0e f005 	mul.w	r0, lr, r5
 800032a:	4290      	cmp	r0, r2
 800032c:	d908      	bls.n	8000340 <__udivmoddi4+0x124>
 800032e:	eb1c 0202 	adds.w	r2, ip, r2
 8000332:	f105 38ff 	add.w	r8, r5, #4294967295	; 0xffffffff
 8000336:	d202      	bcs.n	800033e <__udivmoddi4+0x122>
 8000338:	4290      	cmp	r0, r2
 800033a:	f200 80cb 	bhi.w	80004d4 <__udivmoddi4+0x2b8>
 800033e:	4645      	mov	r5, r8
 8000340:	1a12      	subs	r2, r2, r0
 8000342:	b2a4      	uxth	r4, r4
 8000344:	fbb2 f0f7 	udiv	r0, r2, r7
 8000348:	fb07 2210 	mls	r2, r7, r0, r2
 800034c:	ea44 4402 	orr.w	r4, r4, r2, lsl #16
 8000350:	fb0e fe00 	mul.w	lr, lr, r0
 8000354:	45a6      	cmp	lr, r4
 8000356:	d908      	bls.n	800036a <__udivmoddi4+0x14e>
 8000358:	eb1c 0404 	adds.w	r4, ip, r4
 800035c:	f100 32ff 	add.w	r2, r0, #4294967295	; 0xffffffff
 8000360:	d202      	bcs.n	8000368 <__udivmoddi4+0x14c>
 8000362:	45a6      	cmp	lr, r4
 8000364:	f200 80bb 	bhi.w	80004de <__udivmoddi4+0x2c2>
 8000368:	4610      	mov	r0, r2
 800036a:	eba4 040e 	sub.w	r4, r4, lr
 800036e:	ea40 4005 	orr.w	r0, r0, r5, lsl #16
 8000372:	e79f      	b.n	80002b4 <__udivmoddi4+0x98>
 8000374:	f1c1 0720 	rsb	r7, r1, #32
 8000378:	408b      	lsls	r3, r1
 800037a:	fa22 fc07 	lsr.w	ip, r2, r7
 800037e:	ea4c 0c03 	orr.w	ip, ip, r3
 8000382:	fa05 f401 	lsl.w	r4, r5, r1
 8000386:	fa20 f307 	lsr.w	r3, r0, r7
 800038a:	40fd      	lsrs	r5, r7
 800038c:	ea4f 491c 	mov.w	r9, ip, lsr #16
 8000390:	4323      	orrs	r3, r4
 8000392:	fbb5 f8f9 	udiv	r8, r5, r9
 8000396:	fa1f fe8c 	uxth.w	lr, ip
 800039a:	fb09 5518 	mls	r5, r9, r8, r5
 800039e:	0c1c      	lsrs	r4, r3, #16
 80003a0:	ea44 4405 	orr.w	r4, r4, r5, lsl #16
 80003a4:	fb08 f50e 	mul.w	r5, r8, lr
 80003a8:	42a5      	cmp	r5, r4
 80003aa:	fa02 f201 	lsl.w	r2, r2, r1
 80003ae:	fa00 f001 	lsl.w	r0, r0, r1
 80003b2:	d90b      	bls.n	80003cc <__udivmoddi4+0x1b0>
 80003b4:	eb1c 0404 	adds.w	r4, ip, r4
 80003b8:	f108 3aff 	add.w	sl, r8, #4294967295	; 0xffffffff
 80003bc:	f080 8088 	bcs.w	80004d0 <__udivmoddi4+0x2b4>
 80003c0:	42a5      	cmp	r5, r4
 80003c2:	f240 8085 	bls.w	80004d0 <__udivmoddi4+0x2b4>
 80003c6:	f1a8 0802 	sub.w	r8, r8, #2
 80003ca:	4464      	add	r4, ip
 80003cc:	1b64      	subs	r4, r4, r5
 80003ce:	b29d      	uxth	r5, r3
 80003d0:	fbb4 f3f9 	udiv	r3, r4, r9
 80003d4:	fb09 4413 	mls	r4, r9, r3, r4
 80003d8:	ea45 4404 	orr.w	r4, r5, r4, lsl #16
 80003dc:	fb03 fe0e 	mul.w	lr, r3, lr
 80003e0:	45a6      	cmp	lr, r4
 80003e2:	d908      	bls.n	80003f6 <__udivmoddi4+0x1da>
 80003e4:	eb1c 0404 	adds.w	r4, ip, r4
 80003e8:	f103 35ff 	add.w	r5, r3, #4294967295	; 0xffffffff
 80003ec:	d26c      	bcs.n	80004c8 <__udivmoddi4+0x2ac>
 80003ee:	45a6      	cmp	lr, r4
 80003f0:	d96a      	bls.n	80004c8 <__udivmoddi4+0x2ac>
 80003f2:	3b02      	subs	r3, #2
 80003f4:	4464      	add	r4, ip
 80003f6:	ea43 4308 	orr.w	r3, r3, r8, lsl #16
 80003fa:	fba3 9502 	umull	r9, r5, r3, r2
 80003fe:	eba4 040e 	sub.w	r4, r4, lr
 8000402:	42ac      	cmp	r4, r5
 8000404:	46c8      	mov	r8, r9
 8000406:	46ae      	mov	lr, r5
 8000408:	d356      	bcc.n	80004b8 <__udivmoddi4+0x29c>
 800040a:	d053      	beq.n	80004b4 <__udivmoddi4+0x298>
 800040c:	b156      	cbz	r6, 8000424 <__udivmoddi4+0x208>
 800040e:	ebb0 0208 	subs.w	r2, r0, r8
 8000412:	eb64 040e 	sbc.w	r4, r4, lr
 8000416:	fa04 f707 	lsl.w	r7, r4, r7
 800041a:	40ca      	lsrs	r2, r1
 800041c:	40cc      	lsrs	r4, r1
 800041e:	4317      	orrs	r7, r2
 8000420:	e9c6 7400 	strd	r7, r4, [r6]
 8000424:	4618      	mov	r0, r3
 8000426:	2100      	movs	r1, #0
 8000428:	e8bd 87f0 	ldmia.w	sp!, {r4, r5, r6, r7, r8, r9, sl, pc}
 800042c:	f1c3 0120 	rsb	r1, r3, #32
 8000430:	fa02 fc03 	lsl.w	ip, r2, r3
 8000434:	fa20 f201 	lsr.w	r2, r0, r1
 8000438:	fa25 f101 	lsr.w	r1, r5, r1
 800043c:	409d      	lsls	r5, r3
 800043e:	432a      	orrs	r2, r5
 8000440:	ea4f 471c 	mov.w	r7, ip, lsr #16
 8000444:	fa1f fe8c 	uxth.w	lr, ip
 8000448:	fbb1 f0f7 	udiv	r0, r1, r7
 800044c:	fb07 1510 	mls	r5, r7, r0, r1
 8000450:	0c11      	lsrs	r1, r2, #16
 8000452:	ea41 4105 	orr.w	r1, r1, r5, lsl #16
 8000456:	fb00 f50e 	mul.w	r5, r0, lr
 800045a:	428d      	cmp	r5, r1
 800045c:	fa04 f403 	lsl.w	r4, r4, r3
 8000460:	d908      	bls.n	8000474 <__udivmoddi4+0x258>
 8000462:	eb1c 0101 	adds.w	r1, ip, r1
 8000466:	f100 38ff 	add.w	r8, r0, #4294967295	; 0xffffffff
 800046a:	d22f      	bcs.n	80004cc <__udivmoddi4+0x2b0>
 800046c:	428d      	cmp	r5, r1
 800046e:	d92d      	bls.n	80004cc <__udivmoddi4+0x2b0>
 8000470:	3802      	subs	r0, #2
 8000472:	4461      	add	r1, ip
 8000474:	1b49      	subs	r1, r1, r5
 8000476:	b292      	uxth	r2, r2
 8000478:	fbb1 f5f7 	udiv	r5, r1, r7
 800047c:	fb07 1115 	mls	r1, r7, r5, r1
 8000480:	ea42 4201 	orr.w	r2, r2, r1, lsl #16
 8000484:	fb05 f10e 	mul.w	r1, r5, lr
 8000488:	4291      	cmp	r1, r2
 800048a:	d908      	bls.n	800049e <__udivmoddi4+0x282>
 800048c:	eb1c 0202 	adds.w	r2, ip, r2
 8000490:	f105 38ff 	add.w	r8, r5, #4294967295	; 0xffffffff
 8000494:	d216      	bcs.n	80004c4 <__udivmoddi4+0x2a8>
 8000496:	4291      	cmp	r1, r2
 8000498:	d914      	bls.n	80004c4 <__udivmoddi4+0x2a8>
 800049a:	3d02      	subs	r5, #2
 800049c:	4462      	add	r2, ip
 800049e:	1a52      	subs	r2, r2, r1
 80004a0:	ea45 4100 	orr.w	r1, r5, r0, lsl #16
 80004a4:	e738      	b.n	8000318 <__udivmoddi4+0xfc>
 80004a6:	4631      	mov	r1, r6
 80004a8:	4630      	mov	r0, r6
 80004aa:	e708      	b.n	80002be <__udivmoddi4+0xa2>
 80004ac:	4639      	mov	r1, r7
 80004ae:	e6e6      	b.n	800027e <__udivmoddi4+0x62>
 80004b0:	4610      	mov	r0, r2
 80004b2:	e6fb      	b.n	80002ac <__udivmoddi4+0x90>
 80004b4:	4548      	cmp	r0, r9
 80004b6:	d2a9      	bcs.n	800040c <__udivmoddi4+0x1f0>
 80004b8:	ebb9 0802 	subs.w	r8, r9, r2
 80004bc:	eb65 0e0c 	sbc.w	lr, r5, ip
 80004c0:	3b01      	subs	r3, #1
 80004c2:	e7a3      	b.n	800040c <__udivmoddi4+0x1f0>
 80004c4:	4645      	mov	r5, r8
 80004c6:	e7ea      	b.n	800049e <__udivmoddi4+0x282>
 80004c8:	462b      	mov	r3, r5
 80004ca:	e794      	b.n	80003f6 <__udivmoddi4+0x1da>
 80004cc:	4640      	mov	r0, r8
 80004ce:	e7d1      	b.n	8000474 <__udivmoddi4+0x258>
 80004d0:	46d0      	mov	r8, sl
 80004d2:	e77b      	b.n	80003cc <__udivmoddi4+0x1b0>
 80004d4:	3d02      	subs	r5, #2
 80004d6:	4462      	add	r2, ip
 80004d8:	e732      	b.n	8000340 <__udivmoddi4+0x124>
 80004da:	4608      	mov	r0, r1
 80004dc:	e70a      	b.n	80002f4 <__udivmoddi4+0xd8>
 80004de:	4464      	add	r4, ip
 80004e0:	3802      	subs	r0, #2
 80004e2:	e742      	b.n	800036a <__udivmoddi4+0x14e>

080004e4 <__aeabi_idiv0>:
 80004e4:	4770      	bx	lr
 80004e6:	bf00      	nop

080004e8 <delayRead>:
 80004e8:	b538      	push	{r3, r4, r5, lr}
 80004ea:	7a05      	ldrb	r5, [r0, #8]
 80004ec:	4604      	mov	r4, r0
 80004ee:	b935      	cbnz	r5, 80004fe <delayRead+0x16>
 80004f0:	f000 fb2a 	bl	8000b48 <HAL_GetTick>
 80004f4:	2301      	movs	r3, #1
 80004f6:	6020      	str	r0, [r4, #0]
 80004f8:	7223      	strb	r3, [r4, #8]
 80004fa:	4628      	mov	r0, r5
 80004fc:	bd38      	pop	{r3, r4, r5, pc}
 80004fe:	f000 fb23 	bl	8000b48 <HAL_GetTick>
 8000502:	6823      	ldr	r3, [r4, #0]
 8000504:	1ac0      	subs	r0, r0, r3
 8000506:	6863      	ldr	r3, [r4, #4]
 8000508:	4298      	cmp	r0, r3
 800050a:	f04f 0300 	mov.w	r3, #0
 800050e:	d2f3      	bcs.n	80004f8 <delayRead+0x10>
 8000510:	461d      	mov	r5, r3
 8000512:	e7f2      	b.n	80004fa <delayRead+0x12>

08000514 <SystemClock_Config>:
 8000514:	b510      	push	{r4, lr}
 8000516:	b094      	sub	sp, #80	; 0x50
 8000518:	2210      	movs	r2, #16
 800051a:	2100      	movs	r1, #0
 800051c:	a80a      	add	r0, sp, #40	; 0x28
 800051e:	f001 fb81 	bl	8001c24 <memset>
 8000522:	2214      	movs	r2, #20
 8000524:	2100      	movs	r1, #0
 8000526:	a803      	add	r0, sp, #12
 8000528:	f001 fb7c 	bl	8001c24 <memset>
 800052c:	4b20      	ldr	r3, [pc, #128]	; (80005b0 <SystemClock_Config+0x9c>)
 800052e:	2100      	movs	r1, #0
 8000530:	9101      	str	r1, [sp, #4]
 8000532:	6c1a      	ldr	r2, [r3, #64]	; 0x40
 8000534:	f042 5280 	orr.w	r2, r2, #268435456	; 0x10000000
 8000538:	641a      	str	r2, [r3, #64]	; 0x40
 800053a:	6c1b      	ldr	r3, [r3, #64]	; 0x40
 800053c:	f003 5380 	and.w	r3, r3, #268435456	; 0x10000000
 8000540:	9301      	str	r3, [sp, #4]
 8000542:	9b01      	ldr	r3, [sp, #4]
 8000544:	4b1b      	ldr	r3, [pc, #108]	; (80005b4 <SystemClock_Config+0xa0>)
 8000546:	9102      	str	r1, [sp, #8]
 8000548:	681a      	ldr	r2, [r3, #0]
 800054a:	f442 4240 	orr.w	r2, r2, #49152	; 0xc000
 800054e:	601a      	str	r2, [r3, #0]
 8000550:	681b      	ldr	r3, [r3, #0]
 8000552:	f403 4340 	and.w	r3, r3, #49152	; 0xc000
 8000556:	9302      	str	r3, [sp, #8]
 8000558:	9b02      	ldr	r3, [sp, #8]
 800055a:	2101      	movs	r1, #1
 800055c:	f44f 23a0 	mov.w	r3, #327680	; 0x50000
 8000560:	2402      	movs	r4, #2
 8000562:	e9cd 1308 	strd	r1, r3, [sp, #32]
 8000566:	f44f 0380 	mov.w	r3, #4194304	; 0x400000
 800056a:	2004      	movs	r0, #4
 800056c:	e9cd 430e 	strd	r4, r3, [sp, #56]	; 0x38
 8000570:	23a8      	movs	r3, #168	; 0xa8
 8000572:	e9cd 0310 	strd	r0, r3, [sp, #64]	; 0x40
 8000576:	2307      	movs	r3, #7
 8000578:	a808      	add	r0, sp, #32
 800057a:	9412      	str	r4, [sp, #72]	; 0x48
 800057c:	9313      	str	r3, [sp, #76]	; 0x4c
 800057e:	f000 fe7d 	bl	800127c <HAL_RCC_OscConfig>
 8000582:	b108      	cbz	r0, 8000588 <SystemClock_Config+0x74>
 8000584:	b672      	cpsid	i
 8000586:	e7fe      	b.n	8000586 <SystemClock_Config+0x72>
 8000588:	230f      	movs	r3, #15
 800058a:	e9cd 3403 	strd	r3, r4, [sp, #12]
 800058e:	9005      	str	r0, [sp, #20]
 8000590:	f44f 52a0 	mov.w	r2, #5120	; 0x1400
 8000594:	f44f 5380 	mov.w	r3, #4096	; 0x1000
 8000598:	2105      	movs	r1, #5
 800059a:	a803      	add	r0, sp, #12
 800059c:	e9cd 2306 	strd	r2, r3, [sp, #24]
 80005a0:	f001 f846 	bl	8001630 <HAL_RCC_ClockConfig>
 80005a4:	b108      	cbz	r0, 80005aa <SystemClock_Config+0x96>
 80005a6:	b672      	cpsid	i
 80005a8:	e7fe      	b.n	80005a8 <SystemClock_Config+0x94>
 80005aa:	b014      	add	sp, #80	; 0x50
 80005ac:	bd10      	pop	{r4, pc}
 80005ae:	bf00      	nop
 80005b0:	40023800 	.word	0x40023800
 80005b4:	40007000 	.word	0x40007000

080005b8 <main>:
 80005b8:	e92d 41f0 	stmdb	sp!, {r4, r5, r6, r7, r8, lr}
 80005bc:	b098      	sub	sp, #96	; 0x60
 80005be:	f000 fa9d 	bl	8000afc <HAL_Init>
 80005c2:	f7ff ffa7 	bl	8000514 <SystemClock_Config>
 80005c6:	2214      	movs	r2, #20
 80005c8:	2100      	movs	r1, #0
 80005ca:	a80f      	add	r0, sp, #60	; 0x3c
 80005cc:	f001 fb2a 	bl	8001c24 <memset>
 80005d0:	2400      	movs	r4, #0
 80005d2:	4b7a      	ldr	r3, [pc, #488]	; (80007bc <main+0x204>)
 80005d4:	9400      	str	r4, [sp, #0]
 80005d6:	6b1a      	ldr	r2, [r3, #48]	; 0x30
 80005d8:	4879      	ldr	r0, [pc, #484]	; (80007c0 <main+0x208>)
 80005da:	f042 0204 	orr.w	r2, r2, #4
 80005de:	631a      	str	r2, [r3, #48]	; 0x30
 80005e0:	6b1a      	ldr	r2, [r3, #48]	; 0x30
 80005e2:	f002 0204 	and.w	r2, r2, #4
 80005e6:	9200      	str	r2, [sp, #0]
 80005e8:	9a00      	ldr	r2, [sp, #0]
 80005ea:	9401      	str	r4, [sp, #4]
 80005ec:	6b1a      	ldr	r2, [r3, #48]	; 0x30
 80005ee:	f042 0280 	orr.w	r2, r2, #128	; 0x80
 80005f2:	631a      	str	r2, [r3, #48]	; 0x30
 80005f4:	6b1a      	ldr	r2, [r3, #48]	; 0x30
 80005f6:	f002 0280 	and.w	r2, r2, #128	; 0x80
 80005fa:	9201      	str	r2, [sp, #4]
 80005fc:	9a01      	ldr	r2, [sp, #4]
 80005fe:	9402      	str	r4, [sp, #8]
 8000600:	6b1a      	ldr	r2, [r3, #48]	; 0x30
 8000602:	f042 0201 	orr.w	r2, r2, #1
 8000606:	631a      	str	r2, [r3, #48]	; 0x30
 8000608:	6b1a      	ldr	r2, [r3, #48]	; 0x30
 800060a:	f002 0201 	and.w	r2, r2, #1
 800060e:	9202      	str	r2, [sp, #8]
 8000610:	9a02      	ldr	r2, [sp, #8]
 8000612:	9403      	str	r4, [sp, #12]
 8000614:	6b1a      	ldr	r2, [r3, #48]	; 0x30
 8000616:	f042 0202 	orr.w	r2, r2, #2
 800061a:	631a      	str	r2, [r3, #48]	; 0x30
 800061c:	6b1a      	ldr	r2, [r3, #48]	; 0x30
 800061e:	f002 0202 	and.w	r2, r2, #2
 8000622:	9203      	str	r2, [sp, #12]
 8000624:	9a03      	ldr	r2, [sp, #12]
 8000626:	9404      	str	r4, [sp, #16]
 8000628:	6b1a      	ldr	r2, [r3, #48]	; 0x30
 800062a:	f042 0208 	orr.w	r2, r2, #8
 800062e:	631a      	str	r2, [r3, #48]	; 0x30
 8000630:	6b1a      	ldr	r2, [r3, #48]	; 0x30
 8000632:	f002 0208 	and.w	r2, r2, #8
 8000636:	9204      	str	r2, [sp, #16]
 8000638:	9a04      	ldr	r2, [sp, #16]
 800063a:	9405      	str	r4, [sp, #20]
 800063c:	6b1a      	ldr	r2, [r3, #48]	; 0x30
 800063e:	f042 0240 	orr.w	r2, r2, #64	; 0x40
 8000642:	631a      	str	r2, [r3, #48]	; 0x30
 8000644:	6b1b      	ldr	r3, [r3, #48]	; 0x30
 8000646:	f003 0340 	and.w	r3, r3, #64	; 0x40
 800064a:	4622      	mov	r2, r4
 800064c:	9305      	str	r3, [sp, #20]
 800064e:	f244 0181 	movw	r1, #16513	; 0x4081
 8000652:	9b05      	ldr	r3, [sp, #20]
 8000654:	f000 fd7e 	bl	8001154 <HAL_GPIO_WritePin>
 8000658:	4622      	mov	r2, r4
 800065a:	485a      	ldr	r0, [pc, #360]	; (80007c4 <main+0x20c>)
 800065c:	2140      	movs	r1, #64	; 0x40
 800065e:	f000 fd79 	bl	8001154 <HAL_GPIO_WritePin>
 8000662:	f44f 5700 	mov.w	r7, #8192	; 0x2000
 8000666:	f44f 1388 	mov.w	r3, #1114112	; 0x110000
 800066a:	4857      	ldr	r0, [pc, #348]	; (80007c8 <main+0x210>)
 800066c:	9411      	str	r4, [sp, #68]	; 0x44
 800066e:	a90f      	add	r1, sp, #60	; 0x3c
 8000670:	e9cd 730f 	strd	r7, r3, [sp, #60]	; 0x3c
 8000674:	2501      	movs	r5, #1
 8000676:	f000 fc87 	bl	8000f88 <HAL_GPIO_Init>
 800067a:	f244 0381 	movw	r3, #16513	; 0x4081
 800067e:	4850      	ldr	r0, [pc, #320]	; (80007c0 <main+0x208>)
 8000680:	a90f      	add	r1, sp, #60	; 0x3c
 8000682:	e9cd 350f 	strd	r3, r5, [sp, #60]	; 0x3c
 8000686:	e9cd 4411 	strd	r4, r4, [sp, #68]	; 0x44
 800068a:	f000 fc7d 	bl	8000f88 <HAL_GPIO_Init>
 800068e:	2340      	movs	r3, #64	; 0x40
 8000690:	484c      	ldr	r0, [pc, #304]	; (80007c4 <main+0x20c>)
 8000692:	a90f      	add	r1, sp, #60	; 0x3c
 8000694:	e9cd 350f 	strd	r3, r5, [sp, #60]	; 0x3c
 8000698:	e9cd 4411 	strd	r4, r4, [sp, #68]	; 0x44
 800069c:	2680      	movs	r6, #128	; 0x80
 800069e:	f000 fc73 	bl	8000f88 <HAL_GPIO_Init>
 80006a2:	4848      	ldr	r0, [pc, #288]	; (80007c4 <main+0x20c>)
 80006a4:	9411      	str	r4, [sp, #68]	; 0x44
 80006a6:	a90f      	add	r1, sp, #60	; 0x3c
 80006a8:	e9cd 640f 	strd	r6, r4, [sp, #60]	; 0x3c
 80006ac:	f000 fc6c 	bl	8000f88 <HAL_GPIO_Init>
 80006b0:	4846      	ldr	r0, [pc, #280]	; (80007cc <main+0x214>)
 80006b2:	4b47      	ldr	r3, [pc, #284]	; (80007d0 <main+0x218>)
 80006b4:	6003      	str	r3, [r0, #0]
 80006b6:	4b47      	ldr	r3, [pc, #284]	; (80007d4 <main+0x21c>)
 80006b8:	6043      	str	r3, [r0, #4]
 80006ba:	22e1      	movs	r2, #225	; 0xe1
 80006bc:	701c      	strb	r4, [r3, #0]
 80006be:	70dc      	strb	r4, [r3, #3]
 80006c0:	711c      	strb	r4, [r3, #4]
 80006c2:	715c      	strb	r4, [r3, #5]
 80006c4:	705e      	strb	r6, [r3, #1]
 80006c6:	709a      	strb	r2, [r3, #2]
 80006c8:	f44f 0300 	mov.w	r3, #8388608	; 0x800000
 80006cc:	6083      	str	r3, [r0, #8]
 80006ce:	4b42      	ldr	r3, [pc, #264]	; (80007d8 <main+0x220>)
 80006d0:	60c3      	str	r3, [r0, #12]
 80006d2:	4b42      	ldr	r3, [pc, #264]	; (80007dc <main+0x224>)
 80006d4:	6103      	str	r3, [r0, #16]
 80006d6:	f240 53f4 	movw	r3, #1524	; 0x5f4
 80006da:	6143      	str	r3, [r0, #20]
 80006dc:	f000 fb6a 	bl	8000db4 <HAL_ETH_Init>
 80006e0:	4604      	mov	r4, r0
 80006e2:	b108      	cbz	r0, 80006e8 <main+0x130>
 80006e4:	b672      	cpsid	i
 80006e6:	e7fe      	b.n	80006e6 <main+0x12e>
 80006e8:	4e3d      	ldr	r6, [pc, #244]	; (80007e0 <main+0x228>)
 80006ea:	4601      	mov	r1, r0
 80006ec:	2234      	movs	r2, #52	; 0x34
 80006ee:	1d30      	adds	r0, r6, #4
 80006f0:	f001 fa98 	bl	8001c24 <memset>
 80006f4:	2321      	movs	r3, #33	; 0x21
 80006f6:	6033      	str	r3, [r6, #0]
 80006f8:	f44f 0340 	mov.w	r3, #12582912	; 0xc00000
 80006fc:	4839      	ldr	r0, [pc, #228]	; (80007e4 <main+0x22c>)
 80006fe:	6173      	str	r3, [r6, #20]
 8000700:	4e39      	ldr	r6, [pc, #228]	; (80007e8 <main+0x230>)
 8000702:	6104      	str	r4, [r0, #16]
 8000704:	f44f 33e1 	mov.w	r3, #115200	; 0x1c200
 8000708:	e9c0 6300 	strd	r6, r3, [r0]
 800070c:	230c      	movs	r3, #12
 800070e:	e9c0 4402 	strd	r4, r4, [r0, #8]
 8000712:	e9c0 3405 	strd	r3, r4, [r0, #20]
 8000716:	61c4      	str	r4, [r0, #28]
 8000718:	f001 f8a2 	bl	8001860 <HAL_UART_Init>
 800071c:	b108      	cbz	r0, 8000722 <main+0x16a>
 800071e:	b672      	cpsid	i
 8000720:	e7fe      	b.n	8000720 <main+0x168>
 8000722:	4b32      	ldr	r3, [pc, #200]	; (80007ec <main+0x234>)
 8000724:	f04f 41a0 	mov.w	r1, #1342177280	; 0x50000000
 8000728:	2204      	movs	r2, #4
 800072a:	e9c3 1200 	strd	r1, r2, [r3]
 800072e:	2202      	movs	r2, #2
 8000730:	e9c3 500b 	strd	r5, r0, [r3, #44]	; 0x2c
 8000734:	e9c3 2003 	strd	r2, r0, [r3, #12]
 8000738:	e9c3 0008 	strd	r0, r0, [r3, #32]
 800073c:	4618      	mov	r0, r3
 800073e:	e9c3 2506 	strd	r2, r5, [r3, #24]
 8000742:	f000 fd15 	bl	8001170 <HAL_PCD_Init>
 8000746:	4605      	mov	r5, r0
 8000748:	b108      	cbz	r0, 800074e <main+0x196>
 800074a:	b672      	cpsid	i
 800074c:	e7fe      	b.n	800074c <main+0x194>
 800074e:	4c28      	ldr	r4, [pc, #160]	; (80007f0 <main+0x238>)
 8000750:	e894 0007 	ldmia.w	r4, {r0, r1, r2}
 8000754:	af06      	add	r7, sp, #24
 8000756:	340c      	adds	r4, #12
 8000758:	e887 0007 	stmia.w	r7, {r0, r1, r2}
 800075c:	cc0f      	ldmia	r4!, {r0, r1, r2, r3}
 800075e:	ae09      	add	r6, sp, #36	; 0x24
 8000760:	c60f      	stmia	r6!, {r0, r1, r2, r3}
 8000762:	e894 0003 	ldmia.w	r4, {r0, r1}
 8000766:	f10d 083c 	add.w	r8, sp, #60	; 0x3c
 800076a:	e886 0003 	stmia.w	r6, {r0, r1}
 800076e:	462c      	mov	r4, r5
 8000770:	ae09      	add	r6, sp, #36	; 0x24
 8000772:	8831      	ldrh	r1, [r6, #0]
 8000774:	6870      	ldr	r0, [r6, #4]
 8000776:	2200      	movs	r2, #0
 8000778:	3401      	adds	r4, #1
 800077a:	f000 fceb 	bl	8001154 <HAL_GPIO_WritePin>
 800077e:	f857 3b04 	ldr.w	r3, [r7], #4
 8000782:	f8c8 3004 	str.w	r3, [r8, #4]
 8000786:	2c03      	cmp	r4, #3
 8000788:	f888 5008 	strb.w	r5, [r8, #8]
 800078c:	f106 0608 	add.w	r6, r6, #8
 8000790:	f848 5b0c 	str.w	r5, [r8], #12
 8000794:	d1ed      	bne.n	8000772 <main+0x1ba>
 8000796:	ac09      	add	r4, sp, #36	; 0x24
 8000798:	ae0f      	add	r6, sp, #60	; 0x3c
 800079a:	2500      	movs	r5, #0
 800079c:	4630      	mov	r0, r6
 800079e:	f7ff fea3 	bl	80004e8 <delayRead>
 80007a2:	b118      	cbz	r0, 80007ac <main+0x1f4>
 80007a4:	8821      	ldrh	r1, [r4, #0]
 80007a6:	6860      	ldr	r0, [r4, #4]
 80007a8:	f000 fcd9 	bl	800115e <HAL_GPIO_TogglePin>
 80007ac:	3501      	adds	r5, #1
 80007ae:	2d03      	cmp	r5, #3
 80007b0:	f106 060c 	add.w	r6, r6, #12
 80007b4:	f104 0408 	add.w	r4, r4, #8
 80007b8:	d1f0      	bne.n	800079c <main+0x1e4>
 80007ba:	e7ec      	b.n	8000796 <main+0x1de>
 80007bc:	40023800 	.word	0x40023800
 80007c0:	40020400 	.word	0x40020400
 80007c4:	40021800 	.word	0x40021800
 80007c8:	40020800 	.word	0x40020800
 80007cc:	200001a8 	.word	0x200001a8
 80007d0:	40028000 	.word	0x40028000
 80007d4:	20000168 	.word	0x20000168
 80007d8:	200000c8 	.word	0x200000c8
 80007dc:	20000028 	.word	0x20000028
 80007e0:	20000170 	.word	0x20000170
 80007e4:	20000764 	.word	0x20000764
 80007e8:	40004800 	.word	0x40004800
 80007ec:	20000258 	.word	0x20000258
 80007f0:	08001c94 	.word	0x08001c94

080007f4 <HAL_MspInit>:
 80007f4:	b082      	sub	sp, #8
 80007f6:	4b0c      	ldr	r3, [pc, #48]	; (8000828 <HAL_MspInit+0x34>)
 80007f8:	2100      	movs	r1, #0
 80007fa:	9100      	str	r1, [sp, #0]
 80007fc:	6c5a      	ldr	r2, [r3, #68]	; 0x44
 80007fe:	f442 4280 	orr.w	r2, r2, #16384	; 0x4000
 8000802:	645a      	str	r2, [r3, #68]	; 0x44
 8000804:	6c5a      	ldr	r2, [r3, #68]	; 0x44
 8000806:	f402 4280 	and.w	r2, r2, #16384	; 0x4000
 800080a:	9200      	str	r2, [sp, #0]
 800080c:	9a00      	ldr	r2, [sp, #0]
 800080e:	9101      	str	r1, [sp, #4]
 8000810:	6c1a      	ldr	r2, [r3, #64]	; 0x40
 8000812:	f042 5280 	orr.w	r2, r2, #268435456	; 0x10000000
 8000816:	641a      	str	r2, [r3, #64]	; 0x40
 8000818:	6c1b      	ldr	r3, [r3, #64]	; 0x40
 800081a:	f003 5380 	and.w	r3, r3, #268435456	; 0x10000000
 800081e:	9301      	str	r3, [sp, #4]
 8000820:	9b01      	ldr	r3, [sp, #4]
 8000822:	b002      	add	sp, #8
 8000824:	4770      	bx	lr
 8000826:	bf00      	nop
 8000828:	40023800 	.word	0x40023800

0800082c <HAL_ETH_MspInit>:
 800082c:	b5f0      	push	{r4, r5, r6, r7, lr}
 800082e:	4604      	mov	r4, r0
 8000830:	b08d      	sub	sp, #52	; 0x34
 8000832:	2214      	movs	r2, #20
 8000834:	2100      	movs	r1, #0
 8000836:	a807      	add	r0, sp, #28
 8000838:	f001 f9f4 	bl	8001c24 <memset>
 800083c:	6822      	ldr	r2, [r4, #0]
 800083e:	4b3d      	ldr	r3, [pc, #244]	; (8000934 <HAL_ETH_MspInit+0x108>)
 8000840:	429a      	cmp	r2, r3
 8000842:	d174      	bne.n	800092e <HAL_ETH_MspInit+0x102>
 8000844:	f5a3 4390 	sub.w	r3, r3, #18432	; 0x4800
 8000848:	2400      	movs	r4, #0
 800084a:	9400      	str	r4, [sp, #0]
 800084c:	6b1a      	ldr	r2, [r3, #48]	; 0x30
 800084e:	483a      	ldr	r0, [pc, #232]	; (8000938 <HAL_ETH_MspInit+0x10c>)
 8000850:	f042 7200 	orr.w	r2, r2, #33554432	; 0x2000000
 8000854:	631a      	str	r2, [r3, #48]	; 0x30
 8000856:	6b1a      	ldr	r2, [r3, #48]	; 0x30
 8000858:	f002 7200 	and.w	r2, r2, #33554432	; 0x2000000
 800085c:	9200      	str	r2, [sp, #0]
 800085e:	9a00      	ldr	r2, [sp, #0]
 8000860:	9401      	str	r4, [sp, #4]
 8000862:	6b1a      	ldr	r2, [r3, #48]	; 0x30
 8000864:	f042 6280 	orr.w	r2, r2, #67108864	; 0x4000000
 8000868:	631a      	str	r2, [r3, #48]	; 0x30
 800086a:	6b1a      	ldr	r2, [r3, #48]	; 0x30
 800086c:	f002 6280 	and.w	r2, r2, #67108864	; 0x4000000
 8000870:	9201      	str	r2, [sp, #4]
 8000872:	9a01      	ldr	r2, [sp, #4]
 8000874:	9402      	str	r4, [sp, #8]
 8000876:	6b1a      	ldr	r2, [r3, #48]	; 0x30
 8000878:	f042 6200 	orr.w	r2, r2, #134217728	; 0x8000000
 800087c:	631a      	str	r2, [r3, #48]	; 0x30
 800087e:	6b1a      	ldr	r2, [r3, #48]	; 0x30
 8000880:	f002 6200 	and.w	r2, r2, #134217728	; 0x8000000
 8000884:	9202      	str	r2, [sp, #8]
 8000886:	9a02      	ldr	r2, [sp, #8]
 8000888:	9403      	str	r4, [sp, #12]
 800088a:	6b1a      	ldr	r2, [r3, #48]	; 0x30
 800088c:	f042 0204 	orr.w	r2, r2, #4
 8000890:	631a      	str	r2, [r3, #48]	; 0x30
 8000892:	6b1a      	ldr	r2, [r3, #48]	; 0x30
 8000894:	f002 0204 	and.w	r2, r2, #4
 8000898:	9203      	str	r2, [sp, #12]
 800089a:	9a03      	ldr	r2, [sp, #12]
 800089c:	9404      	str	r4, [sp, #16]
 800089e:	6b1a      	ldr	r2, [r3, #48]	; 0x30
 80008a0:	f042 0201 	orr.w	r2, r2, #1
 80008a4:	631a      	str	r2, [r3, #48]	; 0x30
 80008a6:	6b1a      	ldr	r2, [r3, #48]	; 0x30
 80008a8:	f002 0201 	and.w	r2, r2, #1
 80008ac:	9204      	str	r2, [sp, #16]
 80008ae:	9a04      	ldr	r2, [sp, #16]
 80008b0:	9405      	str	r4, [sp, #20]
 80008b2:	6b1a      	ldr	r2, [r3, #48]	; 0x30
 80008b4:	f042 0202 	orr.w	r2, r2, #2
 80008b8:	631a      	str	r2, [r3, #48]	; 0x30
 80008ba:	6b1a      	ldr	r2, [r3, #48]	; 0x30
 80008bc:	f002 0202 	and.w	r2, r2, #2
 80008c0:	9205      	str	r2, [sp, #20]
 80008c2:	9a05      	ldr	r2, [sp, #20]
 80008c4:	9406      	str	r4, [sp, #24]
 80008c6:	6b1a      	ldr	r2, [r3, #48]	; 0x30
 80008c8:	f042 0240 	orr.w	r2, r2, #64	; 0x40
 80008cc:	631a      	str	r2, [r3, #48]	; 0x30
 80008ce:	6b1b      	ldr	r3, [r3, #48]	; 0x30
 80008d0:	f003 0340 	and.w	r3, r3, #64	; 0x40
 80008d4:	9306      	str	r3, [sp, #24]
 80008d6:	2702      	movs	r7, #2
 80008d8:	2603      	movs	r6, #3
 80008da:	250b      	movs	r5, #11
 80008dc:	9b06      	ldr	r3, [sp, #24]
 80008de:	a907      	add	r1, sp, #28
 80008e0:	2332      	movs	r3, #50	; 0x32
 80008e2:	e9cd 3707 	strd	r3, r7, [sp, #28]
 80008e6:	e9cd 650a 	strd	r6, r5, [sp, #40]	; 0x28
 80008ea:	f000 fb4d 	bl	8000f88 <HAL_GPIO_Init>
 80008ee:	2386      	movs	r3, #134	; 0x86
 80008f0:	4812      	ldr	r0, [pc, #72]	; (800093c <HAL_ETH_MspInit+0x110>)
 80008f2:	950b      	str	r5, [sp, #44]	; 0x2c
 80008f4:	a907      	add	r1, sp, #28
 80008f6:	e9cd 3707 	strd	r3, r7, [sp, #28]
 80008fa:	e9cd 4609 	strd	r4, r6, [sp, #36]	; 0x24
 80008fe:	f000 fb43 	bl	8000f88 <HAL_GPIO_Init>
 8000902:	f44f 5300 	mov.w	r3, #8192	; 0x2000
 8000906:	480e      	ldr	r0, [pc, #56]	; (8000940 <HAL_ETH_MspInit+0x114>)
 8000908:	950b      	str	r5, [sp, #44]	; 0x2c
 800090a:	a907      	add	r1, sp, #28
 800090c:	e9cd 3707 	strd	r3, r7, [sp, #28]
 8000910:	e9cd 4609 	strd	r4, r6, [sp, #36]	; 0x24
 8000914:	f000 fb38 	bl	8000f88 <HAL_GPIO_Init>
 8000918:	f44f 5320 	mov.w	r3, #10240	; 0x2800
 800091c:	4809      	ldr	r0, [pc, #36]	; (8000944 <HAL_ETH_MspInit+0x118>)
 800091e:	950b      	str	r5, [sp, #44]	; 0x2c
 8000920:	a907      	add	r1, sp, #28
 8000922:	e9cd 3707 	strd	r3, r7, [sp, #28]
 8000926:	e9cd 4609 	strd	r4, r6, [sp, #36]	; 0x24
 800092a:	f000 fb2d 	bl	8000f88 <HAL_GPIO_Init>
 800092e:	b00d      	add	sp, #52	; 0x34
 8000930:	bdf0      	pop	{r4, r5, r6, r7, pc}
 8000932:	bf00      	nop
 8000934:	40028000 	.word	0x40028000
 8000938:	40020800 	.word	0x40020800
 800093c:	40020000 	.word	0x40020000
 8000940:	40020400 	.word	0x40020400
 8000944:	40021800 	.word	0x40021800

08000948 <HAL_UART_MspInit>:
 8000948:	b510      	push	{r4, lr}
 800094a:	4604      	mov	r4, r0
 800094c:	b088      	sub	sp, #32
 800094e:	2214      	movs	r2, #20
 8000950:	2100      	movs	r1, #0
 8000952:	a803      	add	r0, sp, #12
 8000954:	f001 f966 	bl	8001c24 <memset>
 8000958:	6822      	ldr	r2, [r4, #0]
 800095a:	4b14      	ldr	r3, [pc, #80]	; (80009ac <HAL_UART_MspInit+0x64>)
 800095c:	429a      	cmp	r2, r3
 800095e:	d123      	bne.n	80009a8 <HAL_UART_MspInit+0x60>
 8000960:	f503 33f8 	add.w	r3, r3, #126976	; 0x1f000
 8000964:	2100      	movs	r1, #0
 8000966:	9101      	str	r1, [sp, #4]
 8000968:	6c1a      	ldr	r2, [r3, #64]	; 0x40
 800096a:	4811      	ldr	r0, [pc, #68]	; (80009b0 <HAL_UART_MspInit+0x68>)
 800096c:	f442 2280 	orr.w	r2, r2, #262144	; 0x40000
 8000970:	641a      	str	r2, [r3, #64]	; 0x40
 8000972:	6c1a      	ldr	r2, [r3, #64]	; 0x40
 8000974:	f402 2280 	and.w	r2, r2, #262144	; 0x40000
 8000978:	9201      	str	r2, [sp, #4]
 800097a:	9a01      	ldr	r2, [sp, #4]
 800097c:	9102      	str	r1, [sp, #8]
 800097e:	6b1a      	ldr	r2, [r3, #48]	; 0x30
 8000980:	f042 0208 	orr.w	r2, r2, #8
 8000984:	631a      	str	r2, [r3, #48]	; 0x30
 8000986:	6b1b      	ldr	r3, [r3, #48]	; 0x30
 8000988:	f003 0308 	and.w	r3, r3, #8
 800098c:	9302      	str	r3, [sp, #8]
 800098e:	9b02      	ldr	r3, [sp, #8]
 8000990:	f44f 7240 	mov.w	r2, #768	; 0x300
 8000994:	2302      	movs	r3, #2
 8000996:	2103      	movs	r1, #3
 8000998:	e9cd 2303 	strd	r2, r3, [sp, #12]
 800099c:	2307      	movs	r3, #7
 800099e:	e9cd 1306 	strd	r1, r3, [sp, #24]
 80009a2:	a903      	add	r1, sp, #12
 80009a4:	f000 faf0 	bl	8000f88 <HAL_GPIO_Init>
 80009a8:	b008      	add	sp, #32
 80009aa:	bd10      	pop	{r4, pc}
 80009ac:	40004800 	.word	0x40004800
 80009b0:	40020c00 	.word	0x40020c00

080009b4 <HAL_PCD_MspInit>:
 80009b4:	b530      	push	{r4, r5, lr}
 80009b6:	4604      	mov	r4, r0
 80009b8:	b089      	sub	sp, #36	; 0x24
 80009ba:	2214      	movs	r2, #20
 80009bc:	2100      	movs	r1, #0
 80009be:	a803      	add	r0, sp, #12
 80009c0:	f001 f930 	bl	8001c24 <memset>
 80009c4:	6823      	ldr	r3, [r4, #0]
 80009c6:	f1b3 4fa0 	cmp.w	r3, #1342177280	; 0x50000000
 80009ca:	d12f      	bne.n	8000a2c <HAL_PCD_MspInit+0x78>
 80009cc:	4c18      	ldr	r4, [pc, #96]	; (8000a30 <HAL_PCD_MspInit+0x7c>)
 80009ce:	4819      	ldr	r0, [pc, #100]	; (8000a34 <HAL_PCD_MspInit+0x80>)
 80009d0:	2500      	movs	r5, #0
 80009d2:	9501      	str	r5, [sp, #4]
 80009d4:	6b23      	ldr	r3, [r4, #48]	; 0x30
 80009d6:	f043 0301 	orr.w	r3, r3, #1
 80009da:	6323      	str	r3, [r4, #48]	; 0x30
 80009dc:	6b23      	ldr	r3, [r4, #48]	; 0x30
 80009de:	f003 0301 	and.w	r3, r3, #1
 80009e2:	9301      	str	r3, [sp, #4]
 80009e4:	f44f 52e8 	mov.w	r2, #7424	; 0x1d00
 80009e8:	9b01      	ldr	r3, [sp, #4]
 80009ea:	2302      	movs	r3, #2
 80009ec:	e9cd 2303 	strd	r2, r3, [sp, #12]
 80009f0:	2103      	movs	r1, #3
 80009f2:	230a      	movs	r3, #10
 80009f4:	e9cd 1306 	strd	r1, r3, [sp, #24]
 80009f8:	a903      	add	r1, sp, #12
 80009fa:	f000 fac5 	bl	8000f88 <HAL_GPIO_Init>
 80009fe:	f44f 7300 	mov.w	r3, #512	; 0x200
 8000a02:	480c      	ldr	r0, [pc, #48]	; (8000a34 <HAL_PCD_MspInit+0x80>)
 8000a04:	9505      	str	r5, [sp, #20]
 8000a06:	a903      	add	r1, sp, #12
 8000a08:	e9cd 3503 	strd	r3, r5, [sp, #12]
 8000a0c:	f000 fabc 	bl	8000f88 <HAL_GPIO_Init>
 8000a10:	6b63      	ldr	r3, [r4, #52]	; 0x34
 8000a12:	f043 0380 	orr.w	r3, r3, #128	; 0x80
 8000a16:	6363      	str	r3, [r4, #52]	; 0x34
 8000a18:	9502      	str	r5, [sp, #8]
 8000a1a:	6c63      	ldr	r3, [r4, #68]	; 0x44
 8000a1c:	f443 4380 	orr.w	r3, r3, #16384	; 0x4000
 8000a20:	6463      	str	r3, [r4, #68]	; 0x44
 8000a22:	6c63      	ldr	r3, [r4, #68]	; 0x44
 8000a24:	f403 4380 	and.w	r3, r3, #16384	; 0x4000
 8000a28:	9302      	str	r3, [sp, #8]
 8000a2a:	9b02      	ldr	r3, [sp, #8]
 8000a2c:	b009      	add	sp, #36	; 0x24
 8000a2e:	bd30      	pop	{r4, r5, pc}
 8000a30:	40023800 	.word	0x40023800
 8000a34:	40020000 	.word	0x40020000

08000a38 <NMI_Handler>:
 8000a38:	e7fe      	b.n	8000a38 <NMI_Handler>

08000a3a <HardFault_Handler>:
 8000a3a:	e7fe      	b.n	8000a3a <HardFault_Handler>

08000a3c <MemManage_Handler>:
 8000a3c:	e7fe      	b.n	8000a3c <MemManage_Handler>

08000a3e <BusFault_Handler>:
 8000a3e:	e7fe      	b.n	8000a3e <BusFault_Handler>

08000a40 <UsageFault_Handler>:
 8000a40:	e7fe      	b.n	8000a40 <UsageFault_Handler>

08000a42 <SVC_Handler>:
 8000a42:	4770      	bx	lr

08000a44 <DebugMon_Handler>:
 8000a44:	4770      	bx	lr

08000a46 <PendSV_Handler>:
 8000a46:	4770      	bx	lr

08000a48 <SysTick_Handler>:
 8000a48:	f000 b872 	b.w	8000b30 <HAL_IncTick>

08000a4c <SystemInit>:
 8000a4c:	4a03      	ldr	r2, [pc, #12]	; (8000a5c <SystemInit+0x10>)
 8000a4e:	f8d2 3088 	ldr.w	r3, [r2, #136]	; 0x88
 8000a52:	f443 0370 	orr.w	r3, r3, #15728640	; 0xf00000
 8000a56:	f8c2 3088 	str.w	r3, [r2, #136]	; 0x88
 8000a5a:	4770      	bx	lr
 8000a5c:	e000ed00 	.word	0xe000ed00

08000a60 <Reset_Handler>:
 8000a60:	f8df d034 	ldr.w	sp, [pc, #52]	; 8000a98 <LoopFillZerobss+0x12>
 8000a64:	480d      	ldr	r0, [pc, #52]	; (8000a9c <LoopFillZerobss+0x16>)
 8000a66:	490e      	ldr	r1, [pc, #56]	; (8000aa0 <LoopFillZerobss+0x1a>)
 8000a68:	4a0e      	ldr	r2, [pc, #56]	; (8000aa4 <LoopFillZerobss+0x1e>)
 8000a6a:	2300      	movs	r3, #0
 8000a6c:	e002      	b.n	8000a74 <LoopCopyDataInit>

08000a6e <CopyDataInit>:
 8000a6e:	58d4      	ldr	r4, [r2, r3]
 8000a70:	50c4      	str	r4, [r0, r3]
 8000a72:	3304      	adds	r3, #4

08000a74 <LoopCopyDataInit>:
 8000a74:	18c4      	adds	r4, r0, r3
 8000a76:	428c      	cmp	r4, r1
 8000a78:	d3f9      	bcc.n	8000a6e <CopyDataInit>
 8000a7a:	4a0b      	ldr	r2, [pc, #44]	; (8000aa8 <LoopFillZerobss+0x22>)
 8000a7c:	4c0b      	ldr	r4, [pc, #44]	; (8000aac <LoopFillZerobss+0x26>)
 8000a7e:	2300      	movs	r3, #0
 8000a80:	e001      	b.n	8000a86 <LoopFillZerobss>

08000a82 <FillZerobss>:
 8000a82:	6013      	str	r3, [r2, #0]
 8000a84:	3204      	adds	r2, #4

08000a86 <LoopFillZerobss>:
 8000a86:	42a2      	cmp	r2, r4
 8000a88:	d3fb      	bcc.n	8000a82 <FillZerobss>
 8000a8a:	f7ff ffdf 	bl	8000a4c <SystemInit>
 8000a8e:	f001 f8d1 	bl	8001c34 <__libc_init_array>
 8000a92:	f7ff fd91 	bl	80005b8 <main>
 8000a96:	4770      	bx	lr
 8000a98:	20030000 	.word	0x20030000
 8000a9c:	20000000 	.word	0x20000000
 8000aa0:	2000000c 	.word	0x2000000c
 8000aa4:	08001ce0 	.word	0x08001ce0
 8000aa8:	2000000c 	.word	0x2000000c
 8000aac:	200007ac 	.word	0x200007ac

08000ab0 <ADC_IRQHandler>:
 8000ab0:	e7fe      	b.n	8000ab0 <ADC_IRQHandler>
	...

08000ab4 <HAL_InitTick>:
 8000ab4:	b538      	push	{r3, r4, r5, lr}
 8000ab6:	4b0e      	ldr	r3, [pc, #56]	; (8000af0 <HAL_InitTick+0x3c>)
 8000ab8:	781a      	ldrb	r2, [r3, #0]
 8000aba:	f44f 737a 	mov.w	r3, #1000	; 0x3e8
 8000abe:	fbb3 f3f2 	udiv	r3, r3, r2
 8000ac2:	4a0c      	ldr	r2, [pc, #48]	; (8000af4 <HAL_InitTick+0x40>)
 8000ac4:	4605      	mov	r5, r0
 8000ac6:	6810      	ldr	r0, [r2, #0]
 8000ac8:	fbb0 f0f3 	udiv	r0, r0, r3
 8000acc:	f000 f89a 	bl	8000c04 <HAL_SYSTICK_Config>
 8000ad0:	4604      	mov	r4, r0
 8000ad2:	b958      	cbnz	r0, 8000aec <HAL_InitTick+0x38>
 8000ad4:	2d0f      	cmp	r5, #15
 8000ad6:	d809      	bhi.n	8000aec <HAL_InitTick+0x38>
 8000ad8:	4602      	mov	r2, r0
 8000ada:	4629      	mov	r1, r5
 8000adc:	f04f 30ff 	mov.w	r0, #4294967295	; 0xffffffff
 8000ae0:	f000 f85e 	bl	8000ba0 <HAL_NVIC_SetPriority>
 8000ae4:	4b04      	ldr	r3, [pc, #16]	; (8000af8 <HAL_InitTick+0x44>)
 8000ae6:	4620      	mov	r0, r4
 8000ae8:	601d      	str	r5, [r3, #0]
 8000aea:	bd38      	pop	{r3, r4, r5, pc}
 8000aec:	2001      	movs	r0, #1
 8000aee:	e7fc      	b.n	8000aea <HAL_InitTick+0x36>
 8000af0:	20000004 	.word	0x20000004
 8000af4:	20000000 	.word	0x20000000
 8000af8:	20000008 	.word	0x20000008

08000afc <HAL_Init>:
 8000afc:	b508      	push	{r3, lr}
 8000afe:	4b0b      	ldr	r3, [pc, #44]	; (8000b2c <HAL_Init+0x30>)
 8000b00:	681a      	ldr	r2, [r3, #0]
 8000b02:	f442 7200 	orr.w	r2, r2, #512	; 0x200
 8000b06:	601a      	str	r2, [r3, #0]
 8000b08:	681a      	ldr	r2, [r3, #0]
 8000b0a:	f442 6280 	orr.w	r2, r2, #1024	; 0x400
 8000b0e:	601a      	str	r2, [r3, #0]
 8000b10:	681a      	ldr	r2, [r3, #0]
 8000b12:	f442 7280 	orr.w	r2, r2, #256	; 0x100
 8000b16:	601a      	str	r2, [r3, #0]
 8000b18:	2003      	movs	r0, #3
 8000b1a:	f000 f82f 	bl	8000b7c <HAL_NVIC_SetPriorityGrouping>
 8000b1e:	2000      	movs	r0, #0
 8000b20:	f7ff ffc8 	bl	8000ab4 <HAL_InitTick>
 8000b24:	f7ff fe66 	bl	80007f4 <HAL_MspInit>
 8000b28:	2000      	movs	r0, #0
 8000b2a:	bd08      	pop	{r3, pc}
 8000b2c:	40023c00 	.word	0x40023c00

08000b30 <HAL_IncTick>:
 8000b30:	4a03      	ldr	r2, [pc, #12]	; (8000b40 <HAL_IncTick+0x10>)
 8000b32:	4b04      	ldr	r3, [pc, #16]	; (8000b44 <HAL_IncTick+0x14>)
 8000b34:	6811      	ldr	r1, [r2, #0]
 8000b36:	781b      	ldrb	r3, [r3, #0]
 8000b38:	440b      	add	r3, r1
 8000b3a:	6013      	str	r3, [r2, #0]
 8000b3c:	4770      	bx	lr
 8000b3e:	bf00      	nop
 8000b40:	200007a8 	.word	0x200007a8
 8000b44:	20000004 	.word	0x20000004

08000b48 <HAL_GetTick>:
 8000b48:	4b01      	ldr	r3, [pc, #4]	; (8000b50 <HAL_GetTick+0x8>)
 8000b4a:	6818      	ldr	r0, [r3, #0]
 8000b4c:	4770      	bx	lr
 8000b4e:	bf00      	nop
 8000b50:	200007a8 	.word	0x200007a8

08000b54 <HAL_Delay>:
 8000b54:	b538      	push	{r3, r4, r5, lr}
 8000b56:	4604      	mov	r4, r0
 8000b58:	f7ff fff6 	bl	8000b48 <HAL_GetTick>
 8000b5c:	1c63      	adds	r3, r4, #1
 8000b5e:	bf1c      	itt	ne
 8000b60:	4b05      	ldrne	r3, [pc, #20]	; (8000b78 <HAL_Delay+0x24>)
 8000b62:	781b      	ldrbne	r3, [r3, #0]
 8000b64:	4605      	mov	r5, r0
 8000b66:	bf18      	it	ne
 8000b68:	18e4      	addne	r4, r4, r3
 8000b6a:	f7ff ffed 	bl	8000b48 <HAL_GetTick>
 8000b6e:	1b43      	subs	r3, r0, r5
 8000b70:	42a3      	cmp	r3, r4
 8000b72:	d3fa      	bcc.n	8000b6a <HAL_Delay+0x16>
 8000b74:	bd38      	pop	{r3, r4, r5, pc}
 8000b76:	bf00      	nop
 8000b78:	20000004 	.word	0x20000004

08000b7c <HAL_NVIC_SetPriorityGrouping>:
 8000b7c:	4907      	ldr	r1, [pc, #28]	; (8000b9c <HAL_NVIC_SetPriorityGrouping+0x20>)
 8000b7e:	68ca      	ldr	r2, [r1, #12]
 8000b80:	f422 62e0 	bic.w	r2, r2, #1792	; 0x700
 8000b84:	0203      	lsls	r3, r0, #8
 8000b86:	0412      	lsls	r2, r2, #16
 8000b88:	f403 63e0 	and.w	r3, r3, #1792	; 0x700
 8000b8c:	0c12      	lsrs	r2, r2, #16
 8000b8e:	4313      	orrs	r3, r2
 8000b90:	f043 63bf 	orr.w	r3, r3, #100139008	; 0x5f80000
 8000b94:	f443 3300 	orr.w	r3, r3, #131072	; 0x20000
 8000b98:	60cb      	str	r3, [r1, #12]
 8000b9a:	4770      	bx	lr
 8000b9c:	e000ed00 	.word	0xe000ed00

08000ba0 <HAL_NVIC_SetPriority>:
 8000ba0:	4b16      	ldr	r3, [pc, #88]	; (8000bfc <HAL_NVIC_SetPriority+0x5c>)
 8000ba2:	b530      	push	{r4, r5, lr}
 8000ba4:	68dc      	ldr	r4, [r3, #12]
 8000ba6:	f3c4 2402 	ubfx	r4, r4, #8, #3
 8000baa:	f1c4 0307 	rsb	r3, r4, #7
 8000bae:	1d25      	adds	r5, r4, #4
 8000bb0:	2b04      	cmp	r3, #4
 8000bb2:	bf28      	it	cs
 8000bb4:	2304      	movcs	r3, #4
 8000bb6:	2d06      	cmp	r5, #6
 8000bb8:	f04f 35ff 	mov.w	r5, #4294967295	; 0xffffffff
 8000bbc:	bf8c      	ite	hi
 8000bbe:	3c03      	subhi	r4, #3
 8000bc0:	2400      	movls	r4, #0
 8000bc2:	fa05 f303 	lsl.w	r3, r5, r3
 8000bc6:	ea21 0303 	bic.w	r3, r1, r3
 8000bca:	40a5      	lsls	r5, r4
 8000bcc:	ea22 0205 	bic.w	r2, r2, r5
 8000bd0:	40a3      	lsls	r3, r4
 8000bd2:	2800      	cmp	r0, #0
 8000bd4:	ea43 0302 	orr.w	r3, r3, r2
 8000bd8:	bfac      	ite	ge
 8000bda:	f100 4060 	addge.w	r0, r0, #3758096384	; 0xe0000000
 8000bde:	4a08      	ldrlt	r2, [pc, #32]	; (8000c00 <HAL_NVIC_SetPriority+0x60>)
 8000be0:	ea4f 1303 	mov.w	r3, r3, lsl #4
 8000be4:	bfb8      	it	lt
 8000be6:	f000 000f 	andlt.w	r0, r0, #15
 8000bea:	b2db      	uxtb	r3, r3
 8000bec:	bfaa      	itet	ge
 8000bee:	f500 4061 	addge.w	r0, r0, #57600	; 0xe100
 8000bf2:	5413      	strblt	r3, [r2, r0]
 8000bf4:	f880 3300 	strbge.w	r3, [r0, #768]	; 0x300
 8000bf8:	bd30      	pop	{r4, r5, pc}
 8000bfa:	bf00      	nop
 8000bfc:	e000ed00 	.word	0xe000ed00
 8000c00:	e000ed14 	.word	0xe000ed14

08000c04 <HAL_SYSTICK_Config>:
 8000c04:	3801      	subs	r0, #1
 8000c06:	f1b0 7f80 	cmp.w	r0, #16777216	; 0x1000000
 8000c0a:	d20b      	bcs.n	8000c24 <HAL_SYSTICK_Config+0x20>
 8000c0c:	f04f 23e0 	mov.w	r3, #3758153728	; 0xe000e000
 8000c10:	4a05      	ldr	r2, [pc, #20]	; (8000c28 <HAL_SYSTICK_Config+0x24>)
 8000c12:	6158      	str	r0, [r3, #20]
 8000c14:	21f0      	movs	r1, #240	; 0xf0
 8000c16:	f882 1023 	strb.w	r1, [r2, #35]	; 0x23
 8000c1a:	2000      	movs	r0, #0
 8000c1c:	2207      	movs	r2, #7
 8000c1e:	6198      	str	r0, [r3, #24]
 8000c20:	611a      	str	r2, [r3, #16]
 8000c22:	4770      	bx	lr
 8000c24:	2001      	movs	r0, #1
 8000c26:	4770      	bx	lr
 8000c28:	e000ed00 	.word	0xe000ed00

08000c2c <ETH_SetMACConfig>:
 8000c2c:	b570      	push	{r4, r5, r6, lr}
 8000c2e:	688b      	ldr	r3, [r1, #8]
 8000c30:	6802      	ldr	r2, [r0, #0]
 8000c32:	460d      	mov	r5, r1
 8000c34:	6949      	ldr	r1, [r1, #20]
 8000c36:	430b      	orrs	r3, r1
 8000c38:	69a9      	ldr	r1, [r5, #24]
 8000c3a:	430b      	orrs	r3, r1
 8000c3c:	6a69      	ldr	r1, [r5, #36]	; 0x24
 8000c3e:	430b      	orrs	r3, r1
 8000c40:	7fe9      	ldrb	r1, [r5, #31]
 8000c42:	ea43 4301 	orr.w	r3, r3, r1, lsl #16
 8000c46:	7f29      	ldrb	r1, [r5, #28]
 8000c48:	ea43 3301 	orr.w	r3, r3, r1, lsl #12
 8000c4c:	7929      	ldrb	r1, [r5, #4]
 8000c4e:	ea43 2381 	orr.w	r3, r3, r1, lsl #10
 8000c52:	7be9      	ldrb	r1, [r5, #15]
 8000c54:	ea43 13c1 	orr.w	r3, r3, r1, lsl #7
 8000c58:	f895 1028 	ldrb.w	r1, [r5, #40]	; 0x28
 8000c5c:	4604      	mov	r4, r0
 8000c5e:	ea43 1301 	orr.w	r3, r3, r1, lsl #4
 8000c62:	6810      	ldr	r0, [r2, #0]
 8000c64:	4929      	ldr	r1, [pc, #164]	; (8000d0c <ETH_SetMACConfig+0xe0>)
 8000c66:	4001      	ands	r1, r0
 8000c68:	430b      	orrs	r3, r1
 8000c6a:	7c29      	ldrb	r1, [r5, #16]
 8000c6c:	fab1 f181 	clz	r1, r1
 8000c70:	0949      	lsrs	r1, r1, #5
 8000c72:	ea43 53c1 	orr.w	r3, r3, r1, lsl #23
 8000c76:	7c69      	ldrb	r1, [r5, #17]
 8000c78:	fab1 f181 	clz	r1, r1
 8000c7c:	0949      	lsrs	r1, r1, #5
 8000c7e:	ea43 5381 	orr.w	r3, r3, r1, lsl #22
 8000c82:	7fa9      	ldrb	r1, [r5, #30]
 8000c84:	fab1 f181 	clz	r1, r1
 8000c88:	0949      	lsrs	r1, r1, #5
 8000c8a:	ea43 3341 	orr.w	r3, r3, r1, lsl #13
 8000c8e:	f895 1020 	ldrb.w	r1, [r5, #32]
 8000c92:	fab1 f181 	clz	r1, r1
 8000c96:	0949      	lsrs	r1, r1, #5
 8000c98:	ea43 2341 	orr.w	r3, r3, r1, lsl #9
 8000c9c:	6013      	str	r3, [r2, #0]
 8000c9e:	2001      	movs	r0, #1
 8000ca0:	6816      	ldr	r6, [r2, #0]
 8000ca2:	f7ff ff57 	bl	8000b54 <HAL_Delay>
 8000ca6:	6821      	ldr	r1, [r4, #0]
 8000ca8:	6ca8      	ldr	r0, [r5, #72]	; 0x48
 8000caa:	600e      	str	r6, [r1, #0]
 8000cac:	698a      	ldr	r2, [r1, #24]
 8000cae:	6d2b      	ldr	r3, [r5, #80]	; 0x50
 8000cb0:	f022 02be 	bic.w	r2, r2, #190	; 0xbe
 8000cb4:	0412      	lsls	r2, r2, #16
 8000cb6:	ea43 4300 	orr.w	r3, r3, r0, lsl #16
 8000cba:	0c12      	lsrs	r2, r2, #16
 8000cbc:	4313      	orrs	r3, r2
 8000cbe:	f895 204c 	ldrb.w	r2, [r5, #76]	; 0x4c
 8000cc2:	fab2 f282 	clz	r2, r2
 8000cc6:	0952      	lsrs	r2, r2, #5
 8000cc8:	ea43 13c2 	orr.w	r3, r3, r2, lsl #7
 8000ccc:	f895 2055 	ldrb.w	r2, [r5, #85]	; 0x55
 8000cd0:	1e50      	subs	r0, r2, #1
 8000cd2:	4242      	negs	r2, r0
 8000cd4:	4142      	adcs	r2, r0
 8000cd6:	ea43 03c2 	orr.w	r3, r3, r2, lsl #3
 8000cda:	f895 2056 	ldrb.w	r2, [r5, #86]	; 0x56
 8000cde:	1e56      	subs	r6, r2, #1
 8000ce0:	4272      	negs	r2, r6
 8000ce2:	4172      	adcs	r2, r6
 8000ce4:	ea43 0382 	orr.w	r3, r3, r2, lsl #2
 8000ce8:	f895 2054 	ldrb.w	r2, [r5, #84]	; 0x54
 8000cec:	f102 3cff 	add.w	ip, r2, #4294967295	; 0xffffffff
 8000cf0:	f1dc 0200 	rsbs	r2, ip, #0
 8000cf4:	eb42 020c 	adc.w	r2, r2, ip
 8000cf8:	ea43 0342 	orr.w	r3, r3, r2, lsl #1
 8000cfc:	618b      	str	r3, [r1, #24]
 8000cfe:	2001      	movs	r0, #1
 8000d00:	698d      	ldr	r5, [r1, #24]
 8000d02:	f7ff ff27 	bl	8000b54 <HAL_Delay>
 8000d06:	6823      	ldr	r3, [r4, #0]
 8000d08:	619d      	str	r5, [r3, #24]
 8000d0a:	bd70      	pop	{r4, r5, r6, pc}
 8000d0c:	ff20810f 	.word	0xff20810f

08000d10 <ETH_SetDMAConfig>:
 8000d10:	b570      	push	{r4, r5, r6, lr}
 8000d12:	694b      	ldr	r3, [r1, #20]
 8000d14:	6802      	ldr	r2, [r0, #0]
 8000d16:	460d      	mov	r5, r1
 8000d18:	6a09      	ldr	r1, [r1, #32]
 8000d1a:	430b      	orrs	r3, r1
 8000d1c:	7b69      	ldrb	r1, [r5, #13]
 8000d1e:	ea43 6341 	orr.w	r3, r3, r1, lsl #25
 8000d22:	7ba9      	ldrb	r1, [r5, #14]
 8000d24:	ea43 5341 	orr.w	r3, r3, r1, lsl #21
 8000d28:	7f29      	ldrb	r1, [r5, #28]
 8000d2a:	ea43 13c1 	orr.w	r3, r3, r1, lsl #7
 8000d2e:	7fa9      	ldrb	r1, [r5, #30]
 8000d30:	f502 5280 	add.w	r2, r2, #4096	; 0x1000
 8000d34:	ea43 1381 	orr.w	r3, r3, r1, lsl #6
 8000d38:	f895 1024 	ldrb.w	r1, [r5, #36]	; 0x24
 8000d3c:	4604      	mov	r4, r0
 8000d3e:	ea43 0381 	orr.w	r3, r3, r1, lsl #2
 8000d42:	6990      	ldr	r0, [r2, #24]
 8000d44:	491a      	ldr	r1, [pc, #104]	; (8000db0 <ETH_SetDMAConfig+0xa0>)
 8000d46:	4001      	ands	r1, r0
 8000d48:	430b      	orrs	r3, r1
 8000d4a:	7b29      	ldrb	r1, [r5, #12]
 8000d4c:	fab1 f181 	clz	r1, r1
 8000d50:	0949      	lsrs	r1, r1, #5
 8000d52:	ea43 6381 	orr.w	r3, r3, r1, lsl #26
 8000d56:	7f69      	ldrb	r1, [r5, #29]
 8000d58:	fab1 f181 	clz	r1, r1
 8000d5c:	0949      	lsrs	r1, r1, #5
 8000d5e:	ea43 5301 	orr.w	r3, r3, r1, lsl #20
 8000d62:	6193      	str	r3, [r2, #24]
 8000d64:	2001      	movs	r0, #1
 8000d66:	6996      	ldr	r6, [r2, #24]
 8000d68:	f7ff fef4 	bl	8000b54 <HAL_Delay>
 8000d6c:	6822      	ldr	r2, [r4, #0]
 8000d6e:	69a9      	ldr	r1, [r5, #24]
 8000d70:	68ab      	ldr	r3, [r5, #8]
 8000d72:	f502 5280 	add.w	r2, r2, #4096	; 0x1000
 8000d76:	430b      	orrs	r3, r1
 8000d78:	6196      	str	r6, [r2, #24]
 8000d7a:	f895 1025 	ldrb.w	r1, [r5, #37]	; 0x25
 8000d7e:	ea43 13c1 	orr.w	r3, r3, r1, lsl #7
 8000d82:	6929      	ldr	r1, [r5, #16]
 8000d84:	430b      	orrs	r3, r1
 8000d86:	6829      	ldr	r1, [r5, #0]
 8000d88:	430b      	orrs	r3, r1
 8000d8a:	6aa9      	ldr	r1, [r5, #40]	; 0x28
 8000d8c:	ea43 0381 	orr.w	r3, r3, r1, lsl #2
 8000d90:	7929      	ldrb	r1, [r5, #4]
 8000d92:	ea43 6341 	orr.w	r3, r3, r1, lsl #25
 8000d96:	f443 0300 	orr.w	r3, r3, #8388608	; 0x800000
 8000d9a:	6013      	str	r3, [r2, #0]
 8000d9c:	2001      	movs	r0, #1
 8000d9e:	6815      	ldr	r5, [r2, #0]
 8000da0:	f7ff fed8 	bl	8000b54 <HAL_Delay>
 8000da4:	6823      	ldr	r3, [r4, #0]
 8000da6:	f503 5380 	add.w	r3, r3, #4096	; 0x1000
 8000daa:	601d      	str	r5, [r3, #0]
 8000dac:	bd70      	pop	{r4, r5, r6, pc}
 8000dae:	bf00      	nop
 8000db0:	f8de3f23 	.word	0xf8de3f23

08000db4 <HAL_ETH_Init>:
 8000db4:	b5f0      	push	{r4, r5, r6, r7, lr}
 8000db6:	4604      	mov	r4, r0
 8000db8:	b0a7      	sub	sp, #156	; 0x9c
 8000dba:	2800      	cmp	r0, #0
 8000dbc:	f000 80dc 	beq.w	8000f78 <HAL_ETH_Init+0x1c4>
 8000dc0:	f8d0 3084 	ldr.w	r3, [r0, #132]	; 0x84
 8000dc4:	b923      	cbnz	r3, 8000dd0 <HAL_ETH_Init+0x1c>
 8000dc6:	2323      	movs	r3, #35	; 0x23
 8000dc8:	f8c0 3084 	str.w	r3, [r0, #132]	; 0x84
 8000dcc:	f7ff fd2e 	bl	800082c <HAL_ETH_MspInit>
 8000dd0:	2300      	movs	r3, #0
 8000dd2:	9301      	str	r3, [sp, #4]
 8000dd4:	4b69      	ldr	r3, [pc, #420]	; (8000f7c <HAL_ETH_Init+0x1c8>)
 8000dd6:	68a1      	ldr	r1, [r4, #8]
 8000dd8:	6c5a      	ldr	r2, [r3, #68]	; 0x44
 8000dda:	f442 4280 	orr.w	r2, r2, #16384	; 0x4000
 8000dde:	645a      	str	r2, [r3, #68]	; 0x44
 8000de0:	6c5b      	ldr	r3, [r3, #68]	; 0x44
 8000de2:	f403 4380 	and.w	r3, r3, #16384	; 0x4000
 8000de6:	9301      	str	r3, [sp, #4]
 8000de8:	9b01      	ldr	r3, [sp, #4]
 8000dea:	4b65      	ldr	r3, [pc, #404]	; (8000f80 <HAL_ETH_Init+0x1cc>)
 8000dec:	685a      	ldr	r2, [r3, #4]
 8000dee:	f422 0200 	bic.w	r2, r2, #8388608	; 0x800000
 8000df2:	605a      	str	r2, [r3, #4]
 8000df4:	685a      	ldr	r2, [r3, #4]
 8000df6:	430a      	orrs	r2, r1
 8000df8:	605a      	str	r2, [r3, #4]
 8000dfa:	685b      	ldr	r3, [r3, #4]
 8000dfc:	6823      	ldr	r3, [r4, #0]
 8000dfe:	f503 5380 	add.w	r3, r3, #4096	; 0x1000
 8000e02:	681a      	ldr	r2, [r3, #0]
 8000e04:	f042 0201 	orr.w	r2, r2, #1
 8000e08:	601a      	str	r2, [r3, #0]
 8000e0a:	f7ff fe9d 	bl	8000b48 <HAL_GetTick>
 8000e0e:	4606      	mov	r6, r0
 8000e10:	6823      	ldr	r3, [r4, #0]
 8000e12:	f503 5380 	add.w	r3, r3, #4096	; 0x1000
 8000e16:	681d      	ldr	r5, [r3, #0]
 8000e18:	f015 0501 	ands.w	r5, r5, #1
 8000e1c:	f040 809f 	bne.w	8000f5e <HAL_ETH_Init+0x1aa>
 8000e20:	2601      	movs	r6, #1
 8000e22:	f44f 4280 	mov.w	r2, #16384	; 0x4000
 8000e26:	f240 1701 	movw	r7, #257	; 0x101
 8000e2a:	f44f 6300 	mov.w	r3, #2048	; 0x800
 8000e2e:	a90d      	add	r1, sp, #52	; 0x34
 8000e30:	4620      	mov	r0, r4
 8000e32:	e9cd 2312 	strd	r2, r3, [sp, #72]	; 0x48
 8000e36:	f88d 6038 	strb.w	r6, [sp, #56]	; 0x38
 8000e3a:	f8ad 6052 	strh.w	r6, [sp, #82]	; 0x52
 8000e3e:	950f      	str	r5, [sp, #60]	; 0x3c
 8000e40:	f88d 5050 	strb.w	r5, [sp, #80]	; 0x50
 8000e44:	f88d 5054 	strb.w	r5, [sp, #84]	; 0x54
 8000e48:	f88d 5043 	strb.w	r5, [sp, #67]	; 0x43
 8000e4c:	f8ad 7044 	strh.w	r7, [sp, #68]	; 0x44
 8000e50:	9516      	str	r5, [sp, #88]	; 0x58
 8000e52:	f88d 505c 	strb.w	r5, [sp, #92]	; 0x5c
 8000e56:	951f      	str	r5, [sp, #124]	; 0x7c
 8000e58:	f88d 5080 	strb.w	r5, [sp, #128]	; 0x80
 8000e5c:	9521      	str	r5, [sp, #132]	; 0x84
 8000e5e:	f8ad 5088 	strh.w	r5, [sp, #136]	; 0x88
 8000e62:	f88d 508a 	strb.w	r5, [sp, #138]	; 0x8a
 8000e66:	f7ff fee1 	bl	8000c2c <ETH_SetMACConfig>
 8000e6a:	f44f 3380 	mov.w	r3, #65536	; 0x10000
 8000e6e:	9304      	str	r3, [sp, #16]
 8000e70:	f44f 5300 	mov.w	r3, #8192	; 0x2000
 8000e74:	e9cd 3506 	strd	r3, r5, [sp, #24]
 8000e78:	f44f 0380 	mov.w	r3, #4194304	; 0x400000
 8000e7c:	9308      	str	r3, [sp, #32]
 8000e7e:	4620      	mov	r0, r4
 8000e80:	f44f 7380 	mov.w	r3, #256	; 0x100
 8000e84:	a902      	add	r1, sp, #8
 8000e86:	f88d 600c 	strb.w	r6, [sp, #12]
 8000e8a:	f88d 6016 	strb.w	r6, [sp, #22]
 8000e8e:	f8ad 3024 	strh.w	r3, [sp, #36]	; 0x24
 8000e92:	f8ad 7014 	strh.w	r7, [sp, #20]
 8000e96:	f88d 5026 	strb.w	r5, [sp, #38]	; 0x26
 8000e9a:	950a      	str	r5, [sp, #40]	; 0x28
 8000e9c:	f8ad 702c 	strh.w	r7, [sp, #44]	; 0x2c
 8000ea0:	950c      	str	r5, [sp, #48]	; 0x30
 8000ea2:	9502      	str	r5, [sp, #8]
 8000ea4:	f7ff ff34 	bl	8000d10 <ETH_SetDMAConfig>
 8000ea8:	68e6      	ldr	r6, [r4, #12]
 8000eaa:	f104 0c14 	add.w	ip, r4, #20
 8000eae:	4633      	mov	r3, r6
 8000eb0:	462a      	mov	r2, r5
 8000eb2:	4628      	mov	r0, r5
 8000eb4:	6018      	str	r0, [r3, #0]
 8000eb6:	6058      	str	r0, [r3, #4]
 8000eb8:	6098      	str	r0, [r3, #8]
 8000eba:	60d8      	str	r0, [r3, #12]
 8000ebc:	f84c 3f04 	str.w	r3, [ip, #4]!
 8000ec0:	681f      	ldr	r7, [r3, #0]
 8000ec2:	4619      	mov	r1, r3
 8000ec4:	f447 1780 	orr.w	r7, r7, #1048576	; 0x100000
 8000ec8:	f841 7b28 	str.w	r7, [r1], #40
 8000ecc:	2a03      	cmp	r2, #3
 8000ece:	bf14      	ite	ne
 8000ed0:	60d9      	strne	r1, [r3, #12]
 8000ed2:	60de      	streq	r6, [r3, #12]
 8000ed4:	681f      	ldr	r7, [r3, #0]
 8000ed6:	3201      	adds	r2, #1
 8000ed8:	f447 0740 	orr.w	r7, r7, #12582912	; 0xc00000
 8000edc:	2a04      	cmp	r2, #4
 8000ede:	601f      	str	r7, [r3, #0]
 8000ee0:	460b      	mov	r3, r1
 8000ee2:	d1e7      	bne.n	8000eb4 <HAL_ETH_Init+0x100>
 8000ee4:	6821      	ldr	r1, [r4, #0]
 8000ee6:	f501 5180 	add.w	r1, r1, #4096	; 0x1000
 8000eea:	2200      	movs	r2, #0
 8000eec:	62a2      	str	r2, [r4, #40]	; 0x28
 8000eee:	610e      	str	r6, [r1, #16]
 8000ef0:	6926      	ldr	r6, [r4, #16]
 8000ef2:	f104 0744 	add.w	r7, r4, #68	; 0x44
 8000ef6:	4633      	mov	r3, r6
 8000ef8:	f04f 4c00 	mov.w	ip, #2147483648	; 0x80000000
 8000efc:	f244 5ef4 	movw	lr, #17908	; 0x45f4
 8000f00:	601a      	str	r2, [r3, #0]
 8000f02:	605a      	str	r2, [r3, #4]
 8000f04:	609a      	str	r2, [r3, #8]
 8000f06:	60da      	str	r2, [r3, #12]
 8000f08:	f8c3 c000 	str.w	ip, [r3]
 8000f0c:	f8c3 e004 	str.w	lr, [r3, #4]
 8000f10:	6858      	ldr	r0, [r3, #4]
 8000f12:	f020 4000 	bic.w	r0, r0, #2147483648	; 0x80000000
 8000f16:	6058      	str	r0, [r3, #4]
 8000f18:	2d03      	cmp	r5, #3
 8000f1a:	f103 0028 	add.w	r0, r3, #40	; 0x28
 8000f1e:	f105 0501 	add.w	r5, r5, #1
 8000f22:	e9c3 2208 	strd	r2, r2, [r3, #32]
 8000f26:	f847 3f04 	str.w	r3, [r7, #4]!
 8000f2a:	bf14      	ite	ne
 8000f2c:	60d8      	strne	r0, [r3, #12]
 8000f2e:	60de      	streq	r6, [r3, #12]
 8000f30:	2d04      	cmp	r5, #4
 8000f32:	4603      	mov	r3, r0
 8000f34:	d1e4      	bne.n	8000f00 <HAL_ETH_Init+0x14c>
 8000f36:	2000      	movs	r0, #0
 8000f38:	e9c4 0017 	strd	r0, r0, [r4, #92]	; 0x5c
 8000f3c:	e9c4 001a 	strd	r0, r0, [r4, #104]	; 0x68
 8000f40:	6862      	ldr	r2, [r4, #4]
 8000f42:	65a0      	str	r0, [r4, #88]	; 0x58
 8000f44:	4b0f      	ldr	r3, [pc, #60]	; (8000f84 <HAL_ETH_Init+0x1d0>)
 8000f46:	60ce      	str	r6, [r1, #12]
 8000f48:	8891      	ldrh	r1, [r2, #4]
 8000f4a:	6419      	str	r1, [r3, #64]	; 0x40
 8000f4c:	6812      	ldr	r2, [r2, #0]
 8000f4e:	645a      	str	r2, [r3, #68]	; 0x44
 8000f50:	2310      	movs	r3, #16
 8000f52:	f8c4 0088 	str.w	r0, [r4, #136]	; 0x88
 8000f56:	f8c4 3084 	str.w	r3, [r4, #132]	; 0x84
 8000f5a:	b027      	add	sp, #156	; 0x9c
 8000f5c:	bdf0      	pop	{r4, r5, r6, r7, pc}
 8000f5e:	f7ff fdf3 	bl	8000b48 <HAL_GetTick>
 8000f62:	1b80      	subs	r0, r0, r6
 8000f64:	f5b0 7ffa 	cmp.w	r0, #500	; 0x1f4
 8000f68:	f67f af52 	bls.w	8000e10 <HAL_ETH_Init+0x5c>
 8000f6c:	2304      	movs	r3, #4
 8000f6e:	f8c4 3088 	str.w	r3, [r4, #136]	; 0x88
 8000f72:	23e0      	movs	r3, #224	; 0xe0
 8000f74:	f8c4 3084 	str.w	r3, [r4, #132]	; 0x84
 8000f78:	2001      	movs	r0, #1
 8000f7a:	e7ee      	b.n	8000f5a <HAL_ETH_Init+0x1a6>
 8000f7c:	40023800 	.word	0x40023800
 8000f80:	40013800 	.word	0x40013800
 8000f84:	40028000 	.word	0x40028000

08000f88 <HAL_GPIO_Init>:
 8000f88:	e92d 4ff7 	stmdb	sp!, {r0, r1, r2, r4, r5, r6, r7, r8, r9, sl, fp, lr}
 8000f8c:	f8df 91c0 	ldr.w	r9, [pc, #448]	; 8001150 <HAL_GPIO_Init+0x1c8>
 8000f90:	4a6d      	ldr	r2, [pc, #436]	; (8001148 <HAL_GPIO_Init+0x1c0>)
 8000f92:	2300      	movs	r3, #0
 8000f94:	680d      	ldr	r5, [r1, #0]
 8000f96:	2401      	movs	r4, #1
 8000f98:	409c      	lsls	r4, r3
 8000f9a:	ea04 0c05 	and.w	ip, r4, r5
 8000f9e:	43ac      	bics	r4, r5
 8000fa0:	f040 80b9 	bne.w	8001116 <HAL_GPIO_Init+0x18e>
 8000fa4:	684d      	ldr	r5, [r1, #4]
 8000fa6:	f005 0403 	and.w	r4, r5, #3
 8000faa:	ea4f 0843 	mov.w	r8, r3, lsl #1
 8000fae:	2603      	movs	r6, #3
 8000fb0:	1e67      	subs	r7, r4, #1
 8000fb2:	fa06 f608 	lsl.w	r6, r6, r8
 8000fb6:	2f01      	cmp	r7, #1
 8000fb8:	ea6f 0606 	mvn.w	r6, r6
 8000fbc:	d834      	bhi.n	8001028 <HAL_GPIO_Init+0xa0>
 8000fbe:	6887      	ldr	r7, [r0, #8]
 8000fc0:	ea07 0e06 	and.w	lr, r7, r6
 8000fc4:	68cf      	ldr	r7, [r1, #12]
 8000fc6:	fa07 f708 	lsl.w	r7, r7, r8
 8000fca:	ea47 070e 	orr.w	r7, r7, lr
 8000fce:	6087      	str	r7, [r0, #8]
 8000fd0:	6847      	ldr	r7, [r0, #4]
 8000fd2:	ea27 0e0c 	bic.w	lr, r7, ip
 8000fd6:	f3c5 1700 	ubfx	r7, r5, #4, #1
 8000fda:	409f      	lsls	r7, r3
 8000fdc:	ea47 070e 	orr.w	r7, r7, lr
 8000fe0:	6047      	str	r7, [r0, #4]
 8000fe2:	68c7      	ldr	r7, [r0, #12]
 8000fe4:	ea07 0e06 	and.w	lr, r7, r6
 8000fe8:	688f      	ldr	r7, [r1, #8]
 8000fea:	fa07 f708 	lsl.w	r7, r7, r8
 8000fee:	ea47 070e 	orr.w	r7, r7, lr
 8000ff2:	2c02      	cmp	r4, #2
 8000ff4:	60c7      	str	r7, [r0, #12]
 8000ff6:	d119      	bne.n	800102c <HAL_GPIO_Init+0xa4>
 8000ff8:	ea4f 0ad3 	mov.w	sl, r3, lsr #3
 8000ffc:	eb00 0a8a 	add.w	sl, r0, sl, lsl #2
 8001000:	f003 0b07 	and.w	fp, r3, #7
 8001004:	f8da 7020 	ldr.w	r7, [sl, #32]
 8001008:	ea4f 0b8b 	mov.w	fp, fp, lsl #2
 800100c:	f04f 0e0f 	mov.w	lr, #15
 8001010:	fa0e fe0b 	lsl.w	lr, lr, fp
 8001014:	ea27 0e0e 	bic.w	lr, r7, lr
 8001018:	690f      	ldr	r7, [r1, #16]
 800101a:	fa07 f70b 	lsl.w	r7, r7, fp
 800101e:	ea47 070e 	orr.w	r7, r7, lr
 8001022:	f8ca 7020 	str.w	r7, [sl, #32]
 8001026:	e001      	b.n	800102c <HAL_GPIO_Init+0xa4>
 8001028:	2c03      	cmp	r4, #3
 800102a:	d1da      	bne.n	8000fe2 <HAL_GPIO_Init+0x5a>
 800102c:	6807      	ldr	r7, [r0, #0]
 800102e:	fa04 f408 	lsl.w	r4, r4, r8
 8001032:	4037      	ands	r7, r6
 8001034:	433c      	orrs	r4, r7
 8001036:	f415 3f40 	tst.w	r5, #196608	; 0x30000
 800103a:	6004      	str	r4, [r0, #0]
 800103c:	d06b      	beq.n	8001116 <HAL_GPIO_Init+0x18e>
 800103e:	f04f 0a00 	mov.w	sl, #0
 8001042:	f8cd a004 	str.w	sl, [sp, #4]
 8001046:	f8d9 6044 	ldr.w	r6, [r9, #68]	; 0x44
 800104a:	4c40      	ldr	r4, [pc, #256]	; (800114c <HAL_GPIO_Init+0x1c4>)
 800104c:	f446 4680 	orr.w	r6, r6, #16384	; 0x4000
 8001050:	f8c9 6044 	str.w	r6, [r9, #68]	; 0x44
 8001054:	f8d9 6044 	ldr.w	r6, [r9, #68]	; 0x44
 8001058:	f406 4680 	and.w	r6, r6, #16384	; 0x4000
 800105c:	9601      	str	r6, [sp, #4]
 800105e:	9e01      	ldr	r6, [sp, #4]
 8001060:	f023 0603 	bic.w	r6, r3, #3
 8001064:	f106 4680 	add.w	r6, r6, #1073741824	; 0x40000000
 8001068:	f506 369c 	add.w	r6, r6, #79872	; 0x13800
 800106c:	f003 0e03 	and.w	lr, r3, #3
 8001070:	f8d6 8008 	ldr.w	r8, [r6, #8]
 8001074:	ea4f 0e8e 	mov.w	lr, lr, lsl #2
 8001078:	270f      	movs	r7, #15
 800107a:	fa07 f70e 	lsl.w	r7, r7, lr
 800107e:	42a0      	cmp	r0, r4
 8001080:	ea28 0707 	bic.w	r7, r8, r7
 8001084:	d04e      	beq.n	8001124 <HAL_GPIO_Init+0x19c>
 8001086:	f504 6480 	add.w	r4, r4, #1024	; 0x400
 800108a:	42a0      	cmp	r0, r4
 800108c:	d04c      	beq.n	8001128 <HAL_GPIO_Init+0x1a0>
 800108e:	f504 6480 	add.w	r4, r4, #1024	; 0x400
 8001092:	42a0      	cmp	r0, r4
 8001094:	d04a      	beq.n	800112c <HAL_GPIO_Init+0x1a4>
 8001096:	f504 6480 	add.w	r4, r4, #1024	; 0x400
 800109a:	42a0      	cmp	r0, r4
 800109c:	d048      	beq.n	8001130 <HAL_GPIO_Init+0x1a8>
 800109e:	f504 6480 	add.w	r4, r4, #1024	; 0x400
 80010a2:	42a0      	cmp	r0, r4
 80010a4:	d046      	beq.n	8001134 <HAL_GPIO_Init+0x1ac>
 80010a6:	f504 6480 	add.w	r4, r4, #1024	; 0x400
 80010aa:	42a0      	cmp	r0, r4
 80010ac:	d044      	beq.n	8001138 <HAL_GPIO_Init+0x1b0>
 80010ae:	f504 6480 	add.w	r4, r4, #1024	; 0x400
 80010b2:	42a0      	cmp	r0, r4
 80010b4:	d042      	beq.n	800113c <HAL_GPIO_Init+0x1b4>
 80010b6:	f504 6480 	add.w	r4, r4, #1024	; 0x400
 80010ba:	42a0      	cmp	r0, r4
 80010bc:	d040      	beq.n	8001140 <HAL_GPIO_Init+0x1b8>
 80010be:	f504 6480 	add.w	r4, r4, #1024	; 0x400
 80010c2:	42a0      	cmp	r0, r4
 80010c4:	d03e      	beq.n	8001144 <HAL_GPIO_Init+0x1bc>
 80010c6:	f504 6480 	add.w	r4, r4, #1024	; 0x400
 80010ca:	42a0      	cmp	r0, r4
 80010cc:	bf0c      	ite	eq
 80010ce:	2409      	moveq	r4, #9
 80010d0:	240a      	movne	r4, #10
 80010d2:	fa04 f40e 	lsl.w	r4, r4, lr
 80010d6:	433c      	orrs	r4, r7
 80010d8:	60b4      	str	r4, [r6, #8]
 80010da:	6894      	ldr	r4, [r2, #8]
 80010dc:	ea6f 060c 	mvn.w	r6, ip
 80010e0:	02ef      	lsls	r7, r5, #11
 80010e2:	bf54      	ite	pl
 80010e4:	4034      	andpl	r4, r6
 80010e6:	ea4c 0404 	orrmi.w	r4, ip, r4
 80010ea:	6094      	str	r4, [r2, #8]
 80010ec:	68d4      	ldr	r4, [r2, #12]
 80010ee:	02af      	lsls	r7, r5, #10
 80010f0:	bf54      	ite	pl
 80010f2:	4034      	andpl	r4, r6
 80010f4:	ea4c 0404 	orrmi.w	r4, ip, r4
 80010f8:	60d4      	str	r4, [r2, #12]
 80010fa:	6854      	ldr	r4, [r2, #4]
 80010fc:	03af      	lsls	r7, r5, #14
 80010fe:	bf54      	ite	pl
 8001100:	4034      	andpl	r4, r6
 8001102:	ea4c 0404 	orrmi.w	r4, ip, r4
 8001106:	6054      	str	r4, [r2, #4]
 8001108:	6814      	ldr	r4, [r2, #0]
 800110a:	03ed      	lsls	r5, r5, #15
 800110c:	bf54      	ite	pl
 800110e:	4034      	andpl	r4, r6
 8001110:	ea4c 0404 	orrmi.w	r4, ip, r4
 8001114:	6014      	str	r4, [r2, #0]
 8001116:	3301      	adds	r3, #1
 8001118:	2b10      	cmp	r3, #16
 800111a:	f47f af3b 	bne.w	8000f94 <HAL_GPIO_Init+0xc>
 800111e:	b003      	add	sp, #12
 8001120:	e8bd 8ff0 	ldmia.w	sp!, {r4, r5, r6, r7, r8, r9, sl, fp, pc}
 8001124:	4654      	mov	r4, sl
 8001126:	e7d4      	b.n	80010d2 <HAL_GPIO_Init+0x14a>
 8001128:	2401      	movs	r4, #1
 800112a:	e7d2      	b.n	80010d2 <HAL_GPIO_Init+0x14a>
 800112c:	2402      	movs	r4, #2
 800112e:	e7d0      	b.n	80010d2 <HAL_GPIO_Init+0x14a>
 8001130:	2403      	movs	r4, #3
 8001132:	e7ce      	b.n	80010d2 <HAL_GPIO_Init+0x14a>
 8001134:	2404      	movs	r4, #4
 8001136:	e7cc      	b.n	80010d2 <HAL_GPIO_Init+0x14a>
 8001138:	2405      	movs	r4, #5
 800113a:	e7ca      	b.n	80010d2 <HAL_GPIO_Init+0x14a>
 800113c:	2406      	movs	r4, #6
 800113e:	e7c8      	b.n	80010d2 <HAL_GPIO_Init+0x14a>
 8001140:	2407      	movs	r4, #7
 8001142:	e7c6      	b.n	80010d2 <HAL_GPIO_Init+0x14a>
 8001144:	2408      	movs	r4, #8
 8001146:	e7c4      	b.n	80010d2 <HAL_GPIO_Init+0x14a>
 8001148:	40013c00 	.word	0x40013c00
 800114c:	40020000 	.word	0x40020000
 8001150:	40023800 	.word	0x40023800

08001154 <HAL_GPIO_WritePin>:
 8001154:	b10a      	cbz	r2, 800115a <HAL_GPIO_WritePin+0x6>
 8001156:	6181      	str	r1, [r0, #24]
 8001158:	4770      	bx	lr
 800115a:	0409      	lsls	r1, r1, #16
 800115c:	e7fb      	b.n	8001156 <HAL_GPIO_WritePin+0x2>

0800115e <HAL_GPIO_TogglePin>:
 800115e:	6943      	ldr	r3, [r0, #20]
 8001160:	ea01 0203 	and.w	r2, r1, r3
 8001164:	ea21 0103 	bic.w	r1, r1, r3
 8001168:	ea41 4102 	orr.w	r1, r1, r2, lsl #16
 800116c:	6181      	str	r1, [r0, #24]
 800116e:	4770      	bx	lr

08001170 <HAL_PCD_Init>:
 8001170:	b5f0      	push	{r4, r5, r6, r7, lr}
 8001172:	4604      	mov	r4, r0
 8001174:	b08b      	sub	sp, #44	; 0x2c
 8001176:	b360      	cbz	r0, 80011d2 <HAL_PCD_Init+0x62>
 8001178:	f890 34bd 	ldrb.w	r3, [r0, #1213]	; 0x4bd
 800117c:	6805      	ldr	r5, [r0, #0]
 800117e:	f003 02ff 	and.w	r2, r3, #255	; 0xff
 8001182:	b91b      	cbnz	r3, 800118c <HAL_PCD_Init+0x1c>
 8001184:	f880 24bc 	strb.w	r2, [r0, #1212]	; 0x4bc
 8001188:	f7ff fc14 	bl	80009b4 <HAL_PCD_MspInit>
 800118c:	2303      	movs	r3, #3
 800118e:	f884 34bd 	strb.w	r3, [r4, #1213]	; 0x4bd
 8001192:	6beb      	ldr	r3, [r5, #60]	; 0x3c
 8001194:	4625      	mov	r5, r4
 8001196:	f413 7380 	ands.w	r3, r3, #256	; 0x100
 800119a:	f855 0b10 	ldr.w	r0, [r5], #16
 800119e:	bf08      	it	eq
 80011a0:	6123      	streq	r3, [r4, #16]
 80011a2:	f000 fbf1 	bl	8001988 <USB_DisableGlobalInt>
 80011a6:	cd0f      	ldmia	r5!, {r0, r1, r2, r3}
 80011a8:	466e      	mov	r6, sp
 80011aa:	c60f      	stmia	r6!, {r0, r1, r2, r3}
 80011ac:	cd0f      	ldmia	r5!, {r0, r1, r2, r3}
 80011ae:	c60f      	stmia	r6!, {r0, r1, r2, r3}
 80011b0:	e895 0003 	ldmia.w	r5, {r0, r1}
 80011b4:	e886 0003 	stmia.w	r6, {r0, r1}
 80011b8:	4625      	mov	r5, r4
 80011ba:	1d27      	adds	r7, r4, #4
 80011bc:	e897 000e 	ldmia.w	r7, {r1, r2, r3}
 80011c0:	f855 0b10 	ldr.w	r0, [r5], #16
 80011c4:	f000 fba0 	bl	8001908 <USB_CoreInit>
 80011c8:	4606      	mov	r6, r0
 80011ca:	b120      	cbz	r0, 80011d6 <HAL_PCD_Init+0x66>
 80011cc:	2302      	movs	r3, #2
 80011ce:	f884 34bd 	strb.w	r3, [r4, #1213]	; 0x4bd
 80011d2:	2501      	movs	r5, #1
 80011d4:	e04e      	b.n	8001274 <HAL_PCD_Init+0x104>
 80011d6:	4601      	mov	r1, r0
 80011d8:	6820      	ldr	r0, [r4, #0]
 80011da:	f000 fbdb 	bl	8001994 <USB_SetCurrentMode>
 80011de:	4630      	mov	r0, r6
 80011e0:	f8d4 c004 	ldr.w	ip, [r4, #4]
 80011e4:	2624      	movs	r6, #36	; 0x24
 80011e6:	f04f 0e01 	mov.w	lr, #1
 80011ea:	4601      	mov	r1, r0
 80011ec:	b2c2      	uxtb	r2, r0
 80011ee:	4594      	cmp	ip, r2
 80011f0:	f100 0001 	add.w	r0, r0, #1
 80011f4:	d81c      	bhi.n	8001230 <HAL_PCD_Init+0xc0>
 80011f6:	2300      	movs	r3, #0
 80011f8:	2624      	movs	r6, #36	; 0x24
 80011fa:	4619      	mov	r1, r3
 80011fc:	b2d8      	uxtb	r0, r3
 80011fe:	4584      	cmp	ip, r0
 8001200:	f103 0301 	add.w	r3, r3, #1
 8001204:	d822      	bhi.n	800124c <HAL_PCD_Init+0xdc>
 8001206:	cd0f      	ldmia	r5!, {r0, r1, r2, r3}
 8001208:	466e      	mov	r6, sp
 800120a:	c60f      	stmia	r6!, {r0, r1, r2, r3}
 800120c:	cd0f      	ldmia	r5!, {r0, r1, r2, r3}
 800120e:	c60f      	stmia	r6!, {r0, r1, r2, r3}
 8001210:	e895 0003 	ldmia.w	r5, {r0, r1}
 8001214:	e886 0003 	stmia.w	r6, {r0, r1}
 8001218:	e897 000e 	ldmia.w	r7, {r1, r2, r3}
 800121c:	6820      	ldr	r0, [r4, #0]
 800121e:	f000 fc3b 	bl	8001a98 <USB_DevInit>
 8001222:	2301      	movs	r3, #1
 8001224:	4605      	mov	r5, r0
 8001226:	b1f0      	cbz	r0, 8001266 <HAL_PCD_Init+0xf6>
 8001228:	2202      	movs	r2, #2
 800122a:	f884 24bd 	strb.w	r2, [r4, #1213]	; 0x4bd
 800122e:	e7d0      	b.n	80011d2 <HAL_PCD_Init+0x62>
 8001230:	fb06 4302 	mla	r3, r6, r2, r4
 8001234:	e9c3 1112 	strd	r1, r1, [r3, #72]	; 0x48
 8001238:	f883 e03d 	strb.w	lr, [r3, #61]	; 0x3d
 800123c:	f883 203c 	strb.w	r2, [r3, #60]	; 0x3c
 8001240:	f8a3 2044 	strh.w	r2, [r3, #68]	; 0x44
 8001244:	f883 1040 	strb.w	r1, [r3, #64]	; 0x40
 8001248:	6559      	str	r1, [r3, #84]	; 0x54
 800124a:	e7cf      	b.n	80011ec <HAL_PCD_Init+0x7c>
 800124c:	fb06 4200 	mla	r2, r6, r0, r4
 8001250:	e9c2 11a2 	strd	r1, r1, [r2, #648]	; 0x288
 8001254:	f882 127d 	strb.w	r1, [r2, #637]	; 0x27d
 8001258:	f882 027c 	strb.w	r0, [r2, #636]	; 0x27c
 800125c:	f882 1280 	strb.w	r1, [r2, #640]	; 0x280
 8001260:	f8c2 1294 	str.w	r1, [r2, #660]	; 0x294
 8001264:	e7ca      	b.n	80011fc <HAL_PCD_Init+0x8c>
 8001266:	f884 0038 	strb.w	r0, [r4, #56]	; 0x38
 800126a:	6820      	ldr	r0, [r4, #0]
 800126c:	f884 34bd 	strb.w	r3, [r4, #1213]	; 0x4bd
 8001270:	f000 fcca 	bl	8001c08 <USB_DevDisconnect>
 8001274:	4628      	mov	r0, r5
 8001276:	b00b      	add	sp, #44	; 0x2c
 8001278:	bdf0      	pop	{r4, r5, r6, r7, pc}
	...

0800127c <HAL_RCC_OscConfig>:
 800127c:	e92d 41f3 	stmdb	sp!, {r0, r1, r4, r5, r6, r7, r8, lr}
 8001280:	4604      	mov	r4, r0
 8001282:	b340      	cbz	r0, 80012d6 <HAL_RCC_OscConfig+0x5a>
 8001284:	6803      	ldr	r3, [r0, #0]
 8001286:	07dd      	lsls	r5, r3, #31
 8001288:	d410      	bmi.n	80012ac <HAL_RCC_OscConfig+0x30>
 800128a:	6823      	ldr	r3, [r4, #0]
 800128c:	0798      	lsls	r0, r3, #30
 800128e:	d45b      	bmi.n	8001348 <HAL_RCC_OscConfig+0xcc>
 8001290:	6823      	ldr	r3, [r4, #0]
 8001292:	071a      	lsls	r2, r3, #28
 8001294:	f100 809d 	bmi.w	80013d2 <HAL_RCC_OscConfig+0x156>
 8001298:	6823      	ldr	r3, [r4, #0]
 800129a:	075b      	lsls	r3, r3, #29
 800129c:	f100 80bd 	bmi.w	800141a <HAL_RCC_OscConfig+0x19e>
 80012a0:	69a0      	ldr	r0, [r4, #24]
 80012a2:	2800      	cmp	r0, #0
 80012a4:	f040 8124 	bne.w	80014f0 <HAL_RCC_OscConfig+0x274>
 80012a8:	2000      	movs	r0, #0
 80012aa:	e02c      	b.n	8001306 <HAL_RCC_OscConfig+0x8a>
 80012ac:	4b8d      	ldr	r3, [pc, #564]	; (80014e4 <HAL_RCC_OscConfig+0x268>)
 80012ae:	689a      	ldr	r2, [r3, #8]
 80012b0:	f002 020c 	and.w	r2, r2, #12
 80012b4:	2a04      	cmp	r2, #4
 80012b6:	d007      	beq.n	80012c8 <HAL_RCC_OscConfig+0x4c>
 80012b8:	689a      	ldr	r2, [r3, #8]
 80012ba:	f002 020c 	and.w	r2, r2, #12
 80012be:	2a08      	cmp	r2, #8
 80012c0:	d10b      	bne.n	80012da <HAL_RCC_OscConfig+0x5e>
 80012c2:	685b      	ldr	r3, [r3, #4]
 80012c4:	0259      	lsls	r1, r3, #9
 80012c6:	d508      	bpl.n	80012da <HAL_RCC_OscConfig+0x5e>
 80012c8:	4b86      	ldr	r3, [pc, #536]	; (80014e4 <HAL_RCC_OscConfig+0x268>)
 80012ca:	681b      	ldr	r3, [r3, #0]
 80012cc:	039a      	lsls	r2, r3, #14
 80012ce:	d5dc      	bpl.n	800128a <HAL_RCC_OscConfig+0xe>
 80012d0:	6863      	ldr	r3, [r4, #4]
 80012d2:	2b00      	cmp	r3, #0
 80012d4:	d1d9      	bne.n	800128a <HAL_RCC_OscConfig+0xe>
 80012d6:	2001      	movs	r0, #1
 80012d8:	e015      	b.n	8001306 <HAL_RCC_OscConfig+0x8a>
 80012da:	6863      	ldr	r3, [r4, #4]
 80012dc:	4d81      	ldr	r5, [pc, #516]	; (80014e4 <HAL_RCC_OscConfig+0x268>)
 80012de:	f5b3 3f80 	cmp.w	r3, #65536	; 0x10000
 80012e2:	d113      	bne.n	800130c <HAL_RCC_OscConfig+0x90>
 80012e4:	682b      	ldr	r3, [r5, #0]
 80012e6:	f443 3380 	orr.w	r3, r3, #65536	; 0x10000
 80012ea:	602b      	str	r3, [r5, #0]
 80012ec:	f7ff fc2c 	bl	8000b48 <HAL_GetTick>
 80012f0:	4e7c      	ldr	r6, [pc, #496]	; (80014e4 <HAL_RCC_OscConfig+0x268>)
 80012f2:	4605      	mov	r5, r0
 80012f4:	6833      	ldr	r3, [r6, #0]
 80012f6:	039b      	lsls	r3, r3, #14
 80012f8:	d4c7      	bmi.n	800128a <HAL_RCC_OscConfig+0xe>
 80012fa:	f7ff fc25 	bl	8000b48 <HAL_GetTick>
 80012fe:	1b40      	subs	r0, r0, r5
 8001300:	2864      	cmp	r0, #100	; 0x64
 8001302:	d9f7      	bls.n	80012f4 <HAL_RCC_OscConfig+0x78>
 8001304:	2003      	movs	r0, #3
 8001306:	b002      	add	sp, #8
 8001308:	e8bd 81f0 	ldmia.w	sp!, {r4, r5, r6, r7, r8, pc}
 800130c:	f5b3 2fa0 	cmp.w	r3, #327680	; 0x50000
 8001310:	d104      	bne.n	800131c <HAL_RCC_OscConfig+0xa0>
 8001312:	682b      	ldr	r3, [r5, #0]
 8001314:	f443 2380 	orr.w	r3, r3, #262144	; 0x40000
 8001318:	602b      	str	r3, [r5, #0]
 800131a:	e7e3      	b.n	80012e4 <HAL_RCC_OscConfig+0x68>
 800131c:	682a      	ldr	r2, [r5, #0]
 800131e:	f422 3280 	bic.w	r2, r2, #65536	; 0x10000
 8001322:	602a      	str	r2, [r5, #0]
 8001324:	682a      	ldr	r2, [r5, #0]
 8001326:	f422 2280 	bic.w	r2, r2, #262144	; 0x40000
 800132a:	602a      	str	r2, [r5, #0]
 800132c:	2b00      	cmp	r3, #0
 800132e:	d1dd      	bne.n	80012ec <HAL_RCC_OscConfig+0x70>
 8001330:	f7ff fc0a 	bl	8000b48 <HAL_GetTick>
 8001334:	4606      	mov	r6, r0
 8001336:	682b      	ldr	r3, [r5, #0]
 8001338:	039f      	lsls	r7, r3, #14
 800133a:	d5a6      	bpl.n	800128a <HAL_RCC_OscConfig+0xe>
 800133c:	f7ff fc04 	bl	8000b48 <HAL_GetTick>
 8001340:	1b80      	subs	r0, r0, r6
 8001342:	2864      	cmp	r0, #100	; 0x64
 8001344:	d9f7      	bls.n	8001336 <HAL_RCC_OscConfig+0xba>
 8001346:	e7dd      	b.n	8001304 <HAL_RCC_OscConfig+0x88>
 8001348:	4b66      	ldr	r3, [pc, #408]	; (80014e4 <HAL_RCC_OscConfig+0x268>)
 800134a:	689a      	ldr	r2, [r3, #8]
 800134c:	f012 0f0c 	tst.w	r2, #12
 8001350:	d007      	beq.n	8001362 <HAL_RCC_OscConfig+0xe6>
 8001352:	689a      	ldr	r2, [r3, #8]
 8001354:	f002 020c 	and.w	r2, r2, #12
 8001358:	2a08      	cmp	r2, #8
 800135a:	d111      	bne.n	8001380 <HAL_RCC_OscConfig+0x104>
 800135c:	685b      	ldr	r3, [r3, #4]
 800135e:	025e      	lsls	r6, r3, #9
 8001360:	d40e      	bmi.n	8001380 <HAL_RCC_OscConfig+0x104>
 8001362:	4a60      	ldr	r2, [pc, #384]	; (80014e4 <HAL_RCC_OscConfig+0x268>)
 8001364:	6813      	ldr	r3, [r2, #0]
 8001366:	079d      	lsls	r5, r3, #30
 8001368:	d502      	bpl.n	8001370 <HAL_RCC_OscConfig+0xf4>
 800136a:	68e3      	ldr	r3, [r4, #12]
 800136c:	2b01      	cmp	r3, #1
 800136e:	d1b2      	bne.n	80012d6 <HAL_RCC_OscConfig+0x5a>
 8001370:	6813      	ldr	r3, [r2, #0]
 8001372:	6921      	ldr	r1, [r4, #16]
 8001374:	f023 03f8 	bic.w	r3, r3, #248	; 0xf8
 8001378:	ea43 03c1 	orr.w	r3, r3, r1, lsl #3
 800137c:	6013      	str	r3, [r2, #0]
 800137e:	e787      	b.n	8001290 <HAL_RCC_OscConfig+0x14>
 8001380:	68e2      	ldr	r2, [r4, #12]
 8001382:	4b59      	ldr	r3, [pc, #356]	; (80014e8 <HAL_RCC_OscConfig+0x26c>)
 8001384:	b1b2      	cbz	r2, 80013b4 <HAL_RCC_OscConfig+0x138>
 8001386:	2201      	movs	r2, #1
 8001388:	601a      	str	r2, [r3, #0]
 800138a:	f7ff fbdd 	bl	8000b48 <HAL_GetTick>
 800138e:	4d55      	ldr	r5, [pc, #340]	; (80014e4 <HAL_RCC_OscConfig+0x268>)
 8001390:	4606      	mov	r6, r0
 8001392:	682b      	ldr	r3, [r5, #0]
 8001394:	0798      	lsls	r0, r3, #30
 8001396:	d507      	bpl.n	80013a8 <HAL_RCC_OscConfig+0x12c>
 8001398:	682b      	ldr	r3, [r5, #0]
 800139a:	6922      	ldr	r2, [r4, #16]
 800139c:	f023 03f8 	bic.w	r3, r3, #248	; 0xf8
 80013a0:	ea43 03c2 	orr.w	r3, r3, r2, lsl #3
 80013a4:	602b      	str	r3, [r5, #0]
 80013a6:	e773      	b.n	8001290 <HAL_RCC_OscConfig+0x14>
 80013a8:	f7ff fbce 	bl	8000b48 <HAL_GetTick>
 80013ac:	1b80      	subs	r0, r0, r6
 80013ae:	2802      	cmp	r0, #2
 80013b0:	d9ef      	bls.n	8001392 <HAL_RCC_OscConfig+0x116>
 80013b2:	e7a7      	b.n	8001304 <HAL_RCC_OscConfig+0x88>
 80013b4:	601a      	str	r2, [r3, #0]
 80013b6:	f7ff fbc7 	bl	8000b48 <HAL_GetTick>
 80013ba:	4e4a      	ldr	r6, [pc, #296]	; (80014e4 <HAL_RCC_OscConfig+0x268>)
 80013bc:	4605      	mov	r5, r0
 80013be:	6833      	ldr	r3, [r6, #0]
 80013c0:	0799      	lsls	r1, r3, #30
 80013c2:	f57f af65 	bpl.w	8001290 <HAL_RCC_OscConfig+0x14>
 80013c6:	f7ff fbbf 	bl	8000b48 <HAL_GetTick>
 80013ca:	1b40      	subs	r0, r0, r5
 80013cc:	2802      	cmp	r0, #2
 80013ce:	d9f6      	bls.n	80013be <HAL_RCC_OscConfig+0x142>
 80013d0:	e798      	b.n	8001304 <HAL_RCC_OscConfig+0x88>
 80013d2:	6962      	ldr	r2, [r4, #20]
 80013d4:	4b44      	ldr	r3, [pc, #272]	; (80014e8 <HAL_RCC_OscConfig+0x26c>)
 80013d6:	b182      	cbz	r2, 80013fa <HAL_RCC_OscConfig+0x17e>
 80013d8:	2201      	movs	r2, #1
 80013da:	f8c3 2e80 	str.w	r2, [r3, #3712]	; 0xe80
 80013de:	f7ff fbb3 	bl	8000b48 <HAL_GetTick>
 80013e2:	4e40      	ldr	r6, [pc, #256]	; (80014e4 <HAL_RCC_OscConfig+0x268>)
 80013e4:	4605      	mov	r5, r0
 80013e6:	6f73      	ldr	r3, [r6, #116]	; 0x74
 80013e8:	079f      	lsls	r7, r3, #30
 80013ea:	f53f af55 	bmi.w	8001298 <HAL_RCC_OscConfig+0x1c>
 80013ee:	f7ff fbab 	bl	8000b48 <HAL_GetTick>
 80013f2:	1b40      	subs	r0, r0, r5
 80013f4:	2802      	cmp	r0, #2
 80013f6:	d9f6      	bls.n	80013e6 <HAL_RCC_OscConfig+0x16a>
 80013f8:	e784      	b.n	8001304 <HAL_RCC_OscConfig+0x88>
 80013fa:	f8c3 2e80 	str.w	r2, [r3, #3712]	; 0xe80
 80013fe:	f7ff fba3 	bl	8000b48 <HAL_GetTick>
 8001402:	4e38      	ldr	r6, [pc, #224]	; (80014e4 <HAL_RCC_OscConfig+0x268>)
 8001404:	4605      	mov	r5, r0
 8001406:	6f73      	ldr	r3, [r6, #116]	; 0x74
 8001408:	0798      	lsls	r0, r3, #30
 800140a:	f57f af45 	bpl.w	8001298 <HAL_RCC_OscConfig+0x1c>
 800140e:	f7ff fb9b 	bl	8000b48 <HAL_GetTick>
 8001412:	1b40      	subs	r0, r0, r5
 8001414:	2802      	cmp	r0, #2
 8001416:	d9f6      	bls.n	8001406 <HAL_RCC_OscConfig+0x18a>
 8001418:	e774      	b.n	8001304 <HAL_RCC_OscConfig+0x88>
 800141a:	4b32      	ldr	r3, [pc, #200]	; (80014e4 <HAL_RCC_OscConfig+0x268>)
 800141c:	6c1a      	ldr	r2, [r3, #64]	; 0x40
 800141e:	f012 5280 	ands.w	r2, r2, #268435456	; 0x10000000
 8001422:	d128      	bne.n	8001476 <HAL_RCC_OscConfig+0x1fa>
 8001424:	9201      	str	r2, [sp, #4]
 8001426:	6c1a      	ldr	r2, [r3, #64]	; 0x40
 8001428:	f042 5280 	orr.w	r2, r2, #268435456	; 0x10000000
 800142c:	641a      	str	r2, [r3, #64]	; 0x40
 800142e:	6c1b      	ldr	r3, [r3, #64]	; 0x40
 8001430:	f003 5380 	and.w	r3, r3, #268435456	; 0x10000000
 8001434:	9301      	str	r3, [sp, #4]
 8001436:	9b01      	ldr	r3, [sp, #4]
 8001438:	2701      	movs	r7, #1
 800143a:	4d2c      	ldr	r5, [pc, #176]	; (80014ec <HAL_RCC_OscConfig+0x270>)
 800143c:	682b      	ldr	r3, [r5, #0]
 800143e:	05d9      	lsls	r1, r3, #23
 8001440:	d51b      	bpl.n	800147a <HAL_RCC_OscConfig+0x1fe>
 8001442:	68a3      	ldr	r3, [r4, #8]
 8001444:	4d27      	ldr	r5, [pc, #156]	; (80014e4 <HAL_RCC_OscConfig+0x268>)
 8001446:	2b01      	cmp	r3, #1
 8001448:	d127      	bne.n	800149a <HAL_RCC_OscConfig+0x21e>
 800144a:	6f2b      	ldr	r3, [r5, #112]	; 0x70
 800144c:	f043 0301 	orr.w	r3, r3, #1
 8001450:	672b      	str	r3, [r5, #112]	; 0x70
 8001452:	f7ff fb79 	bl	8000b48 <HAL_GetTick>
 8001456:	4e23      	ldr	r6, [pc, #140]	; (80014e4 <HAL_RCC_OscConfig+0x268>)
 8001458:	4605      	mov	r5, r0
 800145a:	f241 3888 	movw	r8, #5000	; 0x1388
 800145e:	6f33      	ldr	r3, [r6, #112]	; 0x70
 8001460:	079b      	lsls	r3, r3, #30
 8001462:	d539      	bpl.n	80014d8 <HAL_RCC_OscConfig+0x25c>
 8001464:	2f00      	cmp	r7, #0
 8001466:	f43f af1b 	beq.w	80012a0 <HAL_RCC_OscConfig+0x24>
 800146a:	4a1e      	ldr	r2, [pc, #120]	; (80014e4 <HAL_RCC_OscConfig+0x268>)
 800146c:	6c13      	ldr	r3, [r2, #64]	; 0x40
 800146e:	f023 5380 	bic.w	r3, r3, #268435456	; 0x10000000
 8001472:	6413      	str	r3, [r2, #64]	; 0x40
 8001474:	e714      	b.n	80012a0 <HAL_RCC_OscConfig+0x24>
 8001476:	2700      	movs	r7, #0
 8001478:	e7df      	b.n	800143a <HAL_RCC_OscConfig+0x1be>
 800147a:	682b      	ldr	r3, [r5, #0]
 800147c:	f443 7380 	orr.w	r3, r3, #256	; 0x100
 8001480:	602b      	str	r3, [r5, #0]
 8001482:	f7ff fb61 	bl	8000b48 <HAL_GetTick>
 8001486:	4606      	mov	r6, r0
 8001488:	682b      	ldr	r3, [r5, #0]
 800148a:	05da      	lsls	r2, r3, #23
 800148c:	d4d9      	bmi.n	8001442 <HAL_RCC_OscConfig+0x1c6>
 800148e:	f7ff fb5b 	bl	8000b48 <HAL_GetTick>
 8001492:	1b80      	subs	r0, r0, r6
 8001494:	2802      	cmp	r0, #2
 8001496:	d9f7      	bls.n	8001488 <HAL_RCC_OscConfig+0x20c>
 8001498:	e734      	b.n	8001304 <HAL_RCC_OscConfig+0x88>
 800149a:	2b05      	cmp	r3, #5
 800149c:	d104      	bne.n	80014a8 <HAL_RCC_OscConfig+0x22c>
 800149e:	6f2b      	ldr	r3, [r5, #112]	; 0x70
 80014a0:	f043 0304 	orr.w	r3, r3, #4
 80014a4:	672b      	str	r3, [r5, #112]	; 0x70
 80014a6:	e7d0      	b.n	800144a <HAL_RCC_OscConfig+0x1ce>
 80014a8:	6f2a      	ldr	r2, [r5, #112]	; 0x70
 80014aa:	f022 0201 	bic.w	r2, r2, #1
 80014ae:	672a      	str	r2, [r5, #112]	; 0x70
 80014b0:	6f2a      	ldr	r2, [r5, #112]	; 0x70
 80014b2:	f022 0204 	bic.w	r2, r2, #4
 80014b6:	672a      	str	r2, [r5, #112]	; 0x70
 80014b8:	2b00      	cmp	r3, #0
 80014ba:	d1ca      	bne.n	8001452 <HAL_RCC_OscConfig+0x1d6>
 80014bc:	f7ff fb44 	bl	8000b48 <HAL_GetTick>
 80014c0:	f241 3888 	movw	r8, #5000	; 0x1388
 80014c4:	4606      	mov	r6, r0
 80014c6:	6f2b      	ldr	r3, [r5, #112]	; 0x70
 80014c8:	0798      	lsls	r0, r3, #30
 80014ca:	d5cb      	bpl.n	8001464 <HAL_RCC_OscConfig+0x1e8>
 80014cc:	f7ff fb3c 	bl	8000b48 <HAL_GetTick>
 80014d0:	1b80      	subs	r0, r0, r6
 80014d2:	4540      	cmp	r0, r8
 80014d4:	d9f7      	bls.n	80014c6 <HAL_RCC_OscConfig+0x24a>
 80014d6:	e715      	b.n	8001304 <HAL_RCC_OscConfig+0x88>
 80014d8:	f7ff fb36 	bl	8000b48 <HAL_GetTick>
 80014dc:	1b40      	subs	r0, r0, r5
 80014de:	4540      	cmp	r0, r8
 80014e0:	d9bd      	bls.n	800145e <HAL_RCC_OscConfig+0x1e2>
 80014e2:	e70f      	b.n	8001304 <HAL_RCC_OscConfig+0x88>
 80014e4:	40023800 	.word	0x40023800
 80014e8:	42470000 	.word	0x42470000
 80014ec:	40007000 	.word	0x40007000
 80014f0:	4d36      	ldr	r5, [pc, #216]	; (80015cc <HAL_RCC_OscConfig+0x350>)
 80014f2:	68ab      	ldr	r3, [r5, #8]
 80014f4:	f003 030c 	and.w	r3, r3, #12
 80014f8:	2b08      	cmp	r3, #8
 80014fa:	d03d      	beq.n	8001578 <HAL_RCC_OscConfig+0x2fc>
 80014fc:	4b34      	ldr	r3, [pc, #208]	; (80015d0 <HAL_RCC_OscConfig+0x354>)
 80014fe:	2200      	movs	r2, #0
 8001500:	2802      	cmp	r0, #2
 8001502:	661a      	str	r2, [r3, #96]	; 0x60
 8001504:	d12b      	bne.n	800155e <HAL_RCC_OscConfig+0x2e2>
 8001506:	f7ff fb1f 	bl	8000b48 <HAL_GetTick>
 800150a:	4606      	mov	r6, r0
 800150c:	682b      	ldr	r3, [r5, #0]
 800150e:	0199      	lsls	r1, r3, #6
 8001510:	d41f      	bmi.n	8001552 <HAL_RCC_OscConfig+0x2d6>
 8001512:	e9d4 3207 	ldrd	r3, r2, [r4, #28]
 8001516:	4313      	orrs	r3, r2
 8001518:	6a62      	ldr	r2, [r4, #36]	; 0x24
 800151a:	ea43 1382 	orr.w	r3, r3, r2, lsl #6
 800151e:	6ae2      	ldr	r2, [r4, #44]	; 0x2c
 8001520:	ea43 6302 	orr.w	r3, r3, r2, lsl #24
 8001524:	6aa2      	ldr	r2, [r4, #40]	; 0x28
 8001526:	0852      	lsrs	r2, r2, #1
 8001528:	3a01      	subs	r2, #1
 800152a:	ea43 4302 	orr.w	r3, r3, r2, lsl #16
 800152e:	606b      	str	r3, [r5, #4]
 8001530:	4b27      	ldr	r3, [pc, #156]	; (80015d0 <HAL_RCC_OscConfig+0x354>)
 8001532:	4d26      	ldr	r5, [pc, #152]	; (80015cc <HAL_RCC_OscConfig+0x350>)
 8001534:	2201      	movs	r2, #1
 8001536:	661a      	str	r2, [r3, #96]	; 0x60
 8001538:	f7ff fb06 	bl	8000b48 <HAL_GetTick>
 800153c:	4604      	mov	r4, r0
 800153e:	682b      	ldr	r3, [r5, #0]
 8001540:	019a      	lsls	r2, r3, #6
 8001542:	f53f aeb1 	bmi.w	80012a8 <HAL_RCC_OscConfig+0x2c>
 8001546:	f7ff faff 	bl	8000b48 <HAL_GetTick>
 800154a:	1b00      	subs	r0, r0, r4
 800154c:	2802      	cmp	r0, #2
 800154e:	d9f6      	bls.n	800153e <HAL_RCC_OscConfig+0x2c2>
 8001550:	e6d8      	b.n	8001304 <HAL_RCC_OscConfig+0x88>
 8001552:	f7ff faf9 	bl	8000b48 <HAL_GetTick>
 8001556:	1b80      	subs	r0, r0, r6
 8001558:	2802      	cmp	r0, #2
 800155a:	d9d7      	bls.n	800150c <HAL_RCC_OscConfig+0x290>
 800155c:	e6d2      	b.n	8001304 <HAL_RCC_OscConfig+0x88>
 800155e:	f7ff faf3 	bl	8000b48 <HAL_GetTick>
 8001562:	4604      	mov	r4, r0
 8001564:	682b      	ldr	r3, [r5, #0]
 8001566:	019b      	lsls	r3, r3, #6
 8001568:	f57f ae9e 	bpl.w	80012a8 <HAL_RCC_OscConfig+0x2c>
 800156c:	f7ff faec 	bl	8000b48 <HAL_GetTick>
 8001570:	1b00      	subs	r0, r0, r4
 8001572:	2802      	cmp	r0, #2
 8001574:	d9f6      	bls.n	8001564 <HAL_RCC_OscConfig+0x2e8>
 8001576:	e6c5      	b.n	8001304 <HAL_RCC_OscConfig+0x88>
 8001578:	2801      	cmp	r0, #1
 800157a:	f43f aec4 	beq.w	8001306 <HAL_RCC_OscConfig+0x8a>
 800157e:	686b      	ldr	r3, [r5, #4]
 8001580:	69e2      	ldr	r2, [r4, #28]
 8001582:	f403 0180 	and.w	r1, r3, #4194304	; 0x400000
 8001586:	4291      	cmp	r1, r2
 8001588:	f47f aea5 	bne.w	80012d6 <HAL_RCC_OscConfig+0x5a>
 800158c:	6a21      	ldr	r1, [r4, #32]
 800158e:	f003 023f 	and.w	r2, r3, #63	; 0x3f
 8001592:	428a      	cmp	r2, r1
 8001594:	f47f ae9f 	bne.w	80012d6 <HAL_RCC_OscConfig+0x5a>
 8001598:	6a61      	ldr	r1, [r4, #36]	; 0x24
 800159a:	f647 72c0 	movw	r2, #32704	; 0x7fc0
 800159e:	401a      	ands	r2, r3
 80015a0:	ebb2 1f81 	cmp.w	r2, r1, lsl #6
 80015a4:	f47f ae97 	bne.w	80012d6 <HAL_RCC_OscConfig+0x5a>
 80015a8:	6aa2      	ldr	r2, [r4, #40]	; 0x28
 80015aa:	0852      	lsrs	r2, r2, #1
 80015ac:	f403 3140 	and.w	r1, r3, #196608	; 0x30000
 80015b0:	3a01      	subs	r2, #1
 80015b2:	ebb1 4f02 	cmp.w	r1, r2, lsl #16
 80015b6:	f47f ae8e 	bne.w	80012d6 <HAL_RCC_OscConfig+0x5a>
 80015ba:	6ae2      	ldr	r2, [r4, #44]	; 0x2c
 80015bc:	f003 6370 	and.w	r3, r3, #251658240	; 0xf000000
 80015c0:	ebb3 6f02 	cmp.w	r3, r2, lsl #24
 80015c4:	f43f ae70 	beq.w	80012a8 <HAL_RCC_OscConfig+0x2c>
 80015c8:	e685      	b.n	80012d6 <HAL_RCC_OscConfig+0x5a>
 80015ca:	bf00      	nop
 80015cc:	40023800 	.word	0x40023800
 80015d0:	42470000 	.word	0x42470000

080015d4 <HAL_RCC_GetSysClockFreq>:
 80015d4:	4913      	ldr	r1, [pc, #76]	; (8001624 <HAL_RCC_GetSysClockFreq+0x50>)
 80015d6:	b508      	push	{r3, lr}
 80015d8:	688b      	ldr	r3, [r1, #8]
 80015da:	f003 030c 	and.w	r3, r3, #12
 80015de:	2b04      	cmp	r3, #4
 80015e0:	d01c      	beq.n	800161c <HAL_RCC_GetSysClockFreq+0x48>
 80015e2:	2b08      	cmp	r3, #8
 80015e4:	d11c      	bne.n	8001620 <HAL_RCC_GetSysClockFreq+0x4c>
 80015e6:	684a      	ldr	r2, [r1, #4]
 80015e8:	684b      	ldr	r3, [r1, #4]
 80015ea:	6849      	ldr	r1, [r1, #4]
 80015ec:	f413 0380 	ands.w	r3, r3, #4194304	; 0x400000
 80015f0:	bf14      	ite	ne
 80015f2:	480d      	ldrne	r0, [pc, #52]	; (8001628 <HAL_RCC_GetSysClockFreq+0x54>)
 80015f4:	480d      	ldreq	r0, [pc, #52]	; (800162c <HAL_RCC_GetSysClockFreq+0x58>)
 80015f6:	f3c1 1188 	ubfx	r1, r1, #6, #9
 80015fa:	bf18      	it	ne
 80015fc:	2300      	movne	r3, #0
 80015fe:	f002 023f 	and.w	r2, r2, #63	; 0x3f
 8001602:	fba1 0100 	umull	r0, r1, r1, r0
 8001606:	f7fe fdf1 	bl	80001ec <__aeabi_uldivmod>
 800160a:	4b06      	ldr	r3, [pc, #24]	; (8001624 <HAL_RCC_GetSysClockFreq+0x50>)
 800160c:	685b      	ldr	r3, [r3, #4]
 800160e:	f3c3 4301 	ubfx	r3, r3, #16, #2
 8001612:	3301      	adds	r3, #1
 8001614:	005b      	lsls	r3, r3, #1
 8001616:	fbb0 f0f3 	udiv	r0, r0, r3
 800161a:	bd08      	pop	{r3, pc}
 800161c:	4802      	ldr	r0, [pc, #8]	; (8001628 <HAL_RCC_GetSysClockFreq+0x54>)
 800161e:	e7fc      	b.n	800161a <HAL_RCC_GetSysClockFreq+0x46>
 8001620:	4802      	ldr	r0, [pc, #8]	; (800162c <HAL_RCC_GetSysClockFreq+0x58>)
 8001622:	e7fa      	b.n	800161a <HAL_RCC_GetSysClockFreq+0x46>
 8001624:	40023800 	.word	0x40023800
 8001628:	007a1200 	.word	0x007a1200
 800162c:	00f42400 	.word	0x00f42400

08001630 <HAL_RCC_ClockConfig>:
 8001630:	e92d 41f0 	stmdb	sp!, {r4, r5, r6, r7, r8, lr}
 8001634:	460d      	mov	r5, r1
 8001636:	4604      	mov	r4, r0
 8001638:	b910      	cbnz	r0, 8001640 <HAL_RCC_ClockConfig+0x10>
 800163a:	2001      	movs	r0, #1
 800163c:	e8bd 81f0 	ldmia.w	sp!, {r4, r5, r6, r7, r8, pc}
 8001640:	4b43      	ldr	r3, [pc, #268]	; (8001750 <HAL_RCC_ClockConfig+0x120>)
 8001642:	681a      	ldr	r2, [r3, #0]
 8001644:	f002 020f 	and.w	r2, r2, #15
 8001648:	428a      	cmp	r2, r1
 800164a:	d328      	bcc.n	800169e <HAL_RCC_ClockConfig+0x6e>
 800164c:	6821      	ldr	r1, [r4, #0]
 800164e:	078f      	lsls	r7, r1, #30
 8001650:	d42d      	bmi.n	80016ae <HAL_RCC_ClockConfig+0x7e>
 8001652:	07c8      	lsls	r0, r1, #31
 8001654:	d440      	bmi.n	80016d8 <HAL_RCC_ClockConfig+0xa8>
 8001656:	4b3e      	ldr	r3, [pc, #248]	; (8001750 <HAL_RCC_ClockConfig+0x120>)
 8001658:	681a      	ldr	r2, [r3, #0]
 800165a:	f002 020f 	and.w	r2, r2, #15
 800165e:	42aa      	cmp	r2, r5
 8001660:	d865      	bhi.n	800172e <HAL_RCC_ClockConfig+0xfe>
 8001662:	6822      	ldr	r2, [r4, #0]
 8001664:	0751      	lsls	r1, r2, #29
 8001666:	d46b      	bmi.n	8001740 <HAL_RCC_ClockConfig+0x110>
 8001668:	0713      	lsls	r3, r2, #28
 800166a:	d507      	bpl.n	800167c <HAL_RCC_ClockConfig+0x4c>
 800166c:	4a39      	ldr	r2, [pc, #228]	; (8001754 <HAL_RCC_ClockConfig+0x124>)
 800166e:	6921      	ldr	r1, [r4, #16]
 8001670:	6893      	ldr	r3, [r2, #8]
 8001672:	f423 4360 	bic.w	r3, r3, #57344	; 0xe000
 8001676:	ea43 03c1 	orr.w	r3, r3, r1, lsl #3
 800167a:	6093      	str	r3, [r2, #8]
 800167c:	f7ff ffaa 	bl	80015d4 <HAL_RCC_GetSysClockFreq>
 8001680:	4b34      	ldr	r3, [pc, #208]	; (8001754 <HAL_RCC_ClockConfig+0x124>)
 8001682:	4a35      	ldr	r2, [pc, #212]	; (8001758 <HAL_RCC_ClockConfig+0x128>)
 8001684:	689b      	ldr	r3, [r3, #8]
 8001686:	f3c3 1303 	ubfx	r3, r3, #4, #4
 800168a:	5cd3      	ldrb	r3, [r2, r3]
 800168c:	40d8      	lsrs	r0, r3
 800168e:	4b33      	ldr	r3, [pc, #204]	; (800175c <HAL_RCC_ClockConfig+0x12c>)
 8001690:	6018      	str	r0, [r3, #0]
 8001692:	4b33      	ldr	r3, [pc, #204]	; (8001760 <HAL_RCC_ClockConfig+0x130>)
 8001694:	6818      	ldr	r0, [r3, #0]
 8001696:	f7ff fa0d 	bl	8000ab4 <HAL_InitTick>
 800169a:	2000      	movs	r0, #0
 800169c:	e7ce      	b.n	800163c <HAL_RCC_ClockConfig+0xc>
 800169e:	b2ca      	uxtb	r2, r1
 80016a0:	701a      	strb	r2, [r3, #0]
 80016a2:	681b      	ldr	r3, [r3, #0]
 80016a4:	f003 030f 	and.w	r3, r3, #15
 80016a8:	428b      	cmp	r3, r1
 80016aa:	d1c6      	bne.n	800163a <HAL_RCC_ClockConfig+0xa>
 80016ac:	e7ce      	b.n	800164c <HAL_RCC_ClockConfig+0x1c>
 80016ae:	4b29      	ldr	r3, [pc, #164]	; (8001754 <HAL_RCC_ClockConfig+0x124>)
 80016b0:	f011 0f04 	tst.w	r1, #4
 80016b4:	bf1e      	ittt	ne
 80016b6:	689a      	ldrne	r2, [r3, #8]
 80016b8:	f442 52e0 	orrne.w	r2, r2, #7168	; 0x1c00
 80016bc:	609a      	strne	r2, [r3, #8]
 80016be:	070e      	lsls	r6, r1, #28
 80016c0:	bf42      	ittt	mi
 80016c2:	689a      	ldrmi	r2, [r3, #8]
 80016c4:	f442 4260 	orrmi.w	r2, r2, #57344	; 0xe000
 80016c8:	609a      	strmi	r2, [r3, #8]
 80016ca:	689a      	ldr	r2, [r3, #8]
 80016cc:	68a0      	ldr	r0, [r4, #8]
 80016ce:	f022 02f0 	bic.w	r2, r2, #240	; 0xf0
 80016d2:	4302      	orrs	r2, r0
 80016d4:	609a      	str	r2, [r3, #8]
 80016d6:	e7bc      	b.n	8001652 <HAL_RCC_ClockConfig+0x22>
 80016d8:	6862      	ldr	r2, [r4, #4]
 80016da:	4b1e      	ldr	r3, [pc, #120]	; (8001754 <HAL_RCC_ClockConfig+0x124>)
 80016dc:	2a01      	cmp	r2, #1
 80016de:	d11c      	bne.n	800171a <HAL_RCC_ClockConfig+0xea>
 80016e0:	681b      	ldr	r3, [r3, #0]
 80016e2:	f413 3f00 	tst.w	r3, #131072	; 0x20000
 80016e6:	d0a8      	beq.n	800163a <HAL_RCC_ClockConfig+0xa>
 80016e8:	4e1a      	ldr	r6, [pc, #104]	; (8001754 <HAL_RCC_ClockConfig+0x124>)
 80016ea:	68b3      	ldr	r3, [r6, #8]
 80016ec:	f023 0303 	bic.w	r3, r3, #3
 80016f0:	4313      	orrs	r3, r2
 80016f2:	60b3      	str	r3, [r6, #8]
 80016f4:	f7ff fa28 	bl	8000b48 <HAL_GetTick>
 80016f8:	f241 3888 	movw	r8, #5000	; 0x1388
 80016fc:	4607      	mov	r7, r0
 80016fe:	68b3      	ldr	r3, [r6, #8]
 8001700:	6862      	ldr	r2, [r4, #4]
 8001702:	f003 030c 	and.w	r3, r3, #12
 8001706:	ebb3 0f82 	cmp.w	r3, r2, lsl #2
 800170a:	d0a4      	beq.n	8001656 <HAL_RCC_ClockConfig+0x26>
 800170c:	f7ff fa1c 	bl	8000b48 <HAL_GetTick>
 8001710:	1bc0      	subs	r0, r0, r7
 8001712:	4540      	cmp	r0, r8
 8001714:	d9f3      	bls.n	80016fe <HAL_RCC_ClockConfig+0xce>
 8001716:	2003      	movs	r0, #3
 8001718:	e790      	b.n	800163c <HAL_RCC_ClockConfig+0xc>
 800171a:	1e91      	subs	r1, r2, #2
 800171c:	2901      	cmp	r1, #1
 800171e:	681b      	ldr	r3, [r3, #0]
 8001720:	d802      	bhi.n	8001728 <HAL_RCC_ClockConfig+0xf8>
 8001722:	f013 7f00 	tst.w	r3, #33554432	; 0x2000000
 8001726:	e7de      	b.n	80016e6 <HAL_RCC_ClockConfig+0xb6>
 8001728:	f013 0f02 	tst.w	r3, #2
 800172c:	e7db      	b.n	80016e6 <HAL_RCC_ClockConfig+0xb6>
 800172e:	b2ea      	uxtb	r2, r5
 8001730:	701a      	strb	r2, [r3, #0]
 8001732:	681b      	ldr	r3, [r3, #0]
 8001734:	f003 030f 	and.w	r3, r3, #15
 8001738:	42ab      	cmp	r3, r5
 800173a:	f47f af7e 	bne.w	800163a <HAL_RCC_ClockConfig+0xa>
 800173e:	e790      	b.n	8001662 <HAL_RCC_ClockConfig+0x32>
 8001740:	4904      	ldr	r1, [pc, #16]	; (8001754 <HAL_RCC_ClockConfig+0x124>)
 8001742:	68e0      	ldr	r0, [r4, #12]
 8001744:	688b      	ldr	r3, [r1, #8]
 8001746:	f423 53e0 	bic.w	r3, r3, #7168	; 0x1c00
 800174a:	4303      	orrs	r3, r0
 800174c:	608b      	str	r3, [r1, #8]
 800174e:	e78b      	b.n	8001668 <HAL_RCC_ClockConfig+0x38>
 8001750:	40023c00 	.word	0x40023c00
 8001754:	40023800 	.word	0x40023800
 8001758:	08001cb8 	.word	0x08001cb8
 800175c:	20000000 	.word	0x20000000
 8001760:	20000008 	.word	0x20000008

08001764 <HAL_RCC_GetPCLK1Freq>:
 8001764:	4b04      	ldr	r3, [pc, #16]	; (8001778 <HAL_RCC_GetPCLK1Freq+0x14>)
 8001766:	4a05      	ldr	r2, [pc, #20]	; (800177c <HAL_RCC_GetPCLK1Freq+0x18>)
 8001768:	689b      	ldr	r3, [r3, #8]
 800176a:	f3c3 2382 	ubfx	r3, r3, #10, #3
 800176e:	5cd3      	ldrb	r3, [r2, r3]
 8001770:	4a03      	ldr	r2, [pc, #12]	; (8001780 <HAL_RCC_GetPCLK1Freq+0x1c>)
 8001772:	6810      	ldr	r0, [r2, #0]
 8001774:	40d8      	lsrs	r0, r3
 8001776:	4770      	bx	lr
 8001778:	40023800 	.word	0x40023800
 800177c:	08001cc8 	.word	0x08001cc8
 8001780:	20000000 	.word	0x20000000

08001784 <HAL_RCC_GetPCLK2Freq>:
 8001784:	4b04      	ldr	r3, [pc, #16]	; (8001798 <HAL_RCC_GetPCLK2Freq+0x14>)
 8001786:	4a05      	ldr	r2, [pc, #20]	; (800179c <HAL_RCC_GetPCLK2Freq+0x18>)
 8001788:	689b      	ldr	r3, [r3, #8]
 800178a:	f3c3 3342 	ubfx	r3, r3, #13, #3
 800178e:	5cd3      	ldrb	r3, [r2, r3]
 8001790:	4a03      	ldr	r2, [pc, #12]	; (80017a0 <HAL_RCC_GetPCLK2Freq+0x1c>)
 8001792:	6810      	ldr	r0, [r2, #0]
 8001794:	40d8      	lsrs	r0, r3
 8001796:	4770      	bx	lr
 8001798:	40023800 	.word	0x40023800
 800179c:	08001cc8 	.word	0x08001cc8
 80017a0:	20000000 	.word	0x20000000

080017a4 <UART_SetConfig>:
 80017a4:	6802      	ldr	r2, [r0, #0]
 80017a6:	68c1      	ldr	r1, [r0, #12]
 80017a8:	6913      	ldr	r3, [r2, #16]
 80017aa:	f423 5340 	bic.w	r3, r3, #12288	; 0x3000
 80017ae:	430b      	orrs	r3, r1
 80017b0:	b570      	push	{r4, r5, r6, lr}
 80017b2:	6113      	str	r3, [r2, #16]
 80017b4:	4605      	mov	r5, r0
 80017b6:	6883      	ldr	r3, [r0, #8]
 80017b8:	6900      	ldr	r0, [r0, #16]
 80017ba:	68d1      	ldr	r1, [r2, #12]
 80017bc:	4303      	orrs	r3, r0
 80017be:	6968      	ldr	r0, [r5, #20]
 80017c0:	4303      	orrs	r3, r0
 80017c2:	69e8      	ldr	r0, [r5, #28]
 80017c4:	f421 4116 	bic.w	r1, r1, #38400	; 0x9600
 80017c8:	f021 010c 	bic.w	r1, r1, #12
 80017cc:	4303      	orrs	r3, r0
 80017ce:	430b      	orrs	r3, r1
 80017d0:	60d3      	str	r3, [r2, #12]
 80017d2:	6953      	ldr	r3, [r2, #20]
 80017d4:	69a9      	ldr	r1, [r5, #24]
 80017d6:	f423 7340 	bic.w	r3, r3, #768	; 0x300
 80017da:	430b      	orrs	r3, r1
 80017dc:	6153      	str	r3, [r2, #20]
 80017de:	4b1f      	ldr	r3, [pc, #124]	; (800185c <UART_SetConfig+0xb8>)
 80017e0:	429a      	cmp	r2, r3
 80017e2:	d003      	beq.n	80017ec <UART_SetConfig+0x48>
 80017e4:	f503 6380 	add.w	r3, r3, #1024	; 0x400
 80017e8:	429a      	cmp	r2, r3
 80017ea:	d123      	bne.n	8001834 <UART_SetConfig+0x90>
 80017ec:	f7ff ffca 	bl	8001784 <HAL_RCC_GetPCLK2Freq>
 80017f0:	69eb      	ldr	r3, [r5, #28]
 80017f2:	2119      	movs	r1, #25
 80017f4:	f5b3 4f00 	cmp.w	r3, #32768	; 0x8000
 80017f8:	e9d5 4600 	ldrd	r4, r6, [r5]
 80017fc:	fba0 0101 	umull	r0, r1, r0, r1
 8001800:	d11b      	bne.n	800183a <UART_SetConfig+0x96>
 8001802:	19b2      	adds	r2, r6, r6
 8001804:	f04f 0300 	mov.w	r3, #0
 8001808:	415b      	adcs	r3, r3
 800180a:	f7fe fcef 	bl	80001ec <__aeabi_uldivmod>
 800180e:	2264      	movs	r2, #100	; 0x64
 8001810:	fbb0 f1f2 	udiv	r1, r0, r2
 8001814:	fb02 0311 	mls	r3, r2, r1, r0
 8001818:	00db      	lsls	r3, r3, #3
 800181a:	3332      	adds	r3, #50	; 0x32
 800181c:	fbb3 f3f2 	udiv	r3, r3, r2
 8001820:	f003 0207 	and.w	r2, r3, #7
 8001824:	005b      	lsls	r3, r3, #1
 8001826:	eb02 1201 	add.w	r2, r2, r1, lsl #4
 800182a:	f403 73f8 	and.w	r3, r3, #496	; 0x1f0
 800182e:	4413      	add	r3, r2
 8001830:	60a3      	str	r3, [r4, #8]
 8001832:	bd70      	pop	{r4, r5, r6, pc}
 8001834:	f7ff ff96 	bl	8001764 <HAL_RCC_GetPCLK1Freq>
 8001838:	e7da      	b.n	80017f0 <UART_SetConfig+0x4c>
 800183a:	00b2      	lsls	r2, r6, #2
 800183c:	0fb3      	lsrs	r3, r6, #30
 800183e:	f7fe fcd5 	bl	80001ec <__aeabi_uldivmod>
 8001842:	2264      	movs	r2, #100	; 0x64
 8001844:	fbb0 f1f2 	udiv	r1, r0, r2
 8001848:	fb02 0311 	mls	r3, r2, r1, r0
 800184c:	011b      	lsls	r3, r3, #4
 800184e:	3332      	adds	r3, #50	; 0x32
 8001850:	fbb3 f3f2 	udiv	r3, r3, r2
 8001854:	eb03 1301 	add.w	r3, r3, r1, lsl #4
 8001858:	e7ea      	b.n	8001830 <UART_SetConfig+0x8c>
 800185a:	bf00      	nop
 800185c:	40011000 	.word	0x40011000

08001860 <HAL_UART_Init>:
 8001860:	b510      	push	{r4, lr}
 8001862:	4604      	mov	r4, r0
 8001864:	b340      	cbz	r0, 80018b8 <HAL_UART_Init+0x58>
 8001866:	f890 303d 	ldrb.w	r3, [r0, #61]	; 0x3d
 800186a:	f003 02ff 	and.w	r2, r3, #255	; 0xff
 800186e:	b91b      	cbnz	r3, 8001878 <HAL_UART_Init+0x18>
 8001870:	f880 203c 	strb.w	r2, [r0, #60]	; 0x3c
 8001874:	f7ff f868 	bl	8000948 <HAL_UART_MspInit>
 8001878:	6822      	ldr	r2, [r4, #0]
 800187a:	2324      	movs	r3, #36	; 0x24
 800187c:	f884 303d 	strb.w	r3, [r4, #61]	; 0x3d
 8001880:	68d3      	ldr	r3, [r2, #12]
 8001882:	f423 5300 	bic.w	r3, r3, #8192	; 0x2000
 8001886:	60d3      	str	r3, [r2, #12]
 8001888:	4620      	mov	r0, r4
 800188a:	f7ff ff8b 	bl	80017a4 <UART_SetConfig>
 800188e:	6823      	ldr	r3, [r4, #0]
 8001890:	691a      	ldr	r2, [r3, #16]
 8001892:	f422 4290 	bic.w	r2, r2, #18432	; 0x4800
 8001896:	611a      	str	r2, [r3, #16]
 8001898:	695a      	ldr	r2, [r3, #20]
 800189a:	f022 022a 	bic.w	r2, r2, #42	; 0x2a
 800189e:	615a      	str	r2, [r3, #20]
 80018a0:	68da      	ldr	r2, [r3, #12]
 80018a2:	f442 5200 	orr.w	r2, r2, #8192	; 0x2000
 80018a6:	60da      	str	r2, [r3, #12]
 80018a8:	2000      	movs	r0, #0
 80018aa:	2320      	movs	r3, #32
 80018ac:	6420      	str	r0, [r4, #64]	; 0x40
 80018ae:	f884 303d 	strb.w	r3, [r4, #61]	; 0x3d
 80018b2:	f884 303e 	strb.w	r3, [r4, #62]	; 0x3e
 80018b6:	bd10      	pop	{r4, pc}
 80018b8:	2001      	movs	r0, #1
 80018ba:	e7fc      	b.n	80018b6 <HAL_UART_Init+0x56>

080018bc <USB_CoreReset>:
 80018bc:	b082      	sub	sp, #8
 80018be:	2300      	movs	r3, #0
 80018c0:	4a10      	ldr	r2, [pc, #64]	; (8001904 <USB_CoreReset+0x48>)
 80018c2:	9301      	str	r3, [sp, #4]
 80018c4:	9b01      	ldr	r3, [sp, #4]
 80018c6:	3301      	adds	r3, #1
 80018c8:	9301      	str	r3, [sp, #4]
 80018ca:	9b01      	ldr	r3, [sp, #4]
 80018cc:	4293      	cmp	r3, r2
 80018ce:	d816      	bhi.n	80018fe <USB_CoreReset+0x42>
 80018d0:	6903      	ldr	r3, [r0, #16]
 80018d2:	2b00      	cmp	r3, #0
 80018d4:	daf6      	bge.n	80018c4 <USB_CoreReset+0x8>
 80018d6:	2300      	movs	r3, #0
 80018d8:	9301      	str	r3, [sp, #4]
 80018da:	6903      	ldr	r3, [r0, #16]
 80018dc:	4a09      	ldr	r2, [pc, #36]	; (8001904 <USB_CoreReset+0x48>)
 80018de:	f043 0301 	orr.w	r3, r3, #1
 80018e2:	6103      	str	r3, [r0, #16]
 80018e4:	9b01      	ldr	r3, [sp, #4]
 80018e6:	3301      	adds	r3, #1
 80018e8:	9301      	str	r3, [sp, #4]
 80018ea:	9b01      	ldr	r3, [sp, #4]
 80018ec:	4293      	cmp	r3, r2
 80018ee:	d806      	bhi.n	80018fe <USB_CoreReset+0x42>
 80018f0:	6903      	ldr	r3, [r0, #16]
 80018f2:	f013 0301 	ands.w	r3, r3, #1
 80018f6:	d1f5      	bne.n	80018e4 <USB_CoreReset+0x28>
 80018f8:	4618      	mov	r0, r3
 80018fa:	b002      	add	sp, #8
 80018fc:	4770      	bx	lr
 80018fe:	2003      	movs	r0, #3
 8001900:	e7fb      	b.n	80018fa <USB_CoreReset+0x3e>
 8001902:	bf00      	nop
 8001904:	00030d40 	.word	0x00030d40

08001908 <USB_CoreInit>:
 8001908:	b084      	sub	sp, #16
 800190a:	b538      	push	{r3, r4, r5, lr}
 800190c:	ad05      	add	r5, sp, #20
 800190e:	e885 000e 	stmia.w	r5, {r1, r2, r3}
 8001912:	9b0a      	ldr	r3, [sp, #40]	; 0x28
 8001914:	2b01      	cmp	r3, #1
 8001916:	4604      	mov	r4, r0
 8001918:	d125      	bne.n	8001966 <USB_CoreInit+0x5e>
 800191a:	6b83      	ldr	r3, [r0, #56]	; 0x38
 800191c:	f423 3380 	bic.w	r3, r3, #65536	; 0x10000
 8001920:	6383      	str	r3, [r0, #56]	; 0x38
 8001922:	68c3      	ldr	r3, [r0, #12]
 8001924:	f423 0384 	bic.w	r3, r3, #4325376	; 0x420000
 8001928:	f023 0340 	bic.w	r3, r3, #64	; 0x40
 800192c:	60c3      	str	r3, [r0, #12]
 800192e:	68c3      	ldr	r3, [r0, #12]
 8001930:	f423 1340 	bic.w	r3, r3, #3145728	; 0x300000
 8001934:	60c3      	str	r3, [r0, #12]
 8001936:	9b11      	ldr	r3, [sp, #68]	; 0x44
 8001938:	2b01      	cmp	r3, #1
 800193a:	bf02      	ittt	eq
 800193c:	68c3      	ldreq	r3, [r0, #12]
 800193e:	f443 1380 	orreq.w	r3, r3, #1048576	; 0x100000
 8001942:	60c3      	streq	r3, [r0, #12]
 8001944:	f7ff ffba 	bl	80018bc <USB_CoreReset>
 8001948:	9b08      	ldr	r3, [sp, #32]
 800194a:	2b01      	cmp	r3, #1
 800194c:	d107      	bne.n	800195e <USB_CoreInit+0x56>
 800194e:	68a3      	ldr	r3, [r4, #8]
 8001950:	f043 0306 	orr.w	r3, r3, #6
 8001954:	60a3      	str	r3, [r4, #8]
 8001956:	68a3      	ldr	r3, [r4, #8]
 8001958:	f043 0320 	orr.w	r3, r3, #32
 800195c:	60a3      	str	r3, [r4, #8]
 800195e:	e8bd 4038 	ldmia.w	sp!, {r3, r4, r5, lr}
 8001962:	b004      	add	sp, #16
 8001964:	4770      	bx	lr
 8001966:	68c3      	ldr	r3, [r0, #12]
 8001968:	f043 0340 	orr.w	r3, r3, #64	; 0x40
 800196c:	60c3      	str	r3, [r0, #12]
 800196e:	f7ff ffa5 	bl	80018bc <USB_CoreReset>
 8001972:	9b0e      	ldr	r3, [sp, #56]	; 0x38
 8001974:	b923      	cbnz	r3, 8001980 <USB_CoreInit+0x78>
 8001976:	6ba3      	ldr	r3, [r4, #56]	; 0x38
 8001978:	f443 3380 	orr.w	r3, r3, #65536	; 0x10000
 800197c:	63a3      	str	r3, [r4, #56]	; 0x38
 800197e:	e7e3      	b.n	8001948 <USB_CoreInit+0x40>
 8001980:	6ba3      	ldr	r3, [r4, #56]	; 0x38
 8001982:	f423 3380 	bic.w	r3, r3, #65536	; 0x10000
 8001986:	e7f9      	b.n	800197c <USB_CoreInit+0x74>

08001988 <USB_DisableGlobalInt>:
 8001988:	6883      	ldr	r3, [r0, #8]
 800198a:	f023 0301 	bic.w	r3, r3, #1
 800198e:	6083      	str	r3, [r0, #8]
 8001990:	2000      	movs	r0, #0
 8001992:	4770      	bx	lr

08001994 <USB_SetCurrentMode>:
 8001994:	b538      	push	{r3, r4, r5, lr}
 8001996:	68c3      	ldr	r3, [r0, #12]
 8001998:	2901      	cmp	r1, #1
 800199a:	f023 43c0 	bic.w	r3, r3, #1610612736	; 0x60000000
 800199e:	4605      	mov	r5, r0
 80019a0:	60c3      	str	r3, [r0, #12]
 80019a2:	d110      	bne.n	80019c6 <USB_SetCurrentMode+0x32>
 80019a4:	68c3      	ldr	r3, [r0, #12]
 80019a6:	f043 5300 	orr.w	r3, r3, #536870912	; 0x20000000
 80019aa:	60c3      	str	r3, [r0, #12]
 80019ac:	2400      	movs	r4, #0
 80019ae:	2001      	movs	r0, #1
 80019b0:	f7ff f8d0 	bl	8000b54 <HAL_Delay>
 80019b4:	696b      	ldr	r3, [r5, #20]
 80019b6:	07d9      	lsls	r1, r3, #31
 80019b8:	f104 0401 	add.w	r4, r4, #1
 80019bc:	d415      	bmi.n	80019ea <USB_SetCurrentMode+0x56>
 80019be:	2c32      	cmp	r4, #50	; 0x32
 80019c0:	d1f5      	bne.n	80019ae <USB_SetCurrentMode+0x1a>
 80019c2:	2001      	movs	r0, #1
 80019c4:	bd38      	pop	{r3, r4, r5, pc}
 80019c6:	2900      	cmp	r1, #0
 80019c8:	d1fb      	bne.n	80019c2 <USB_SetCurrentMode+0x2e>
 80019ca:	68c3      	ldr	r3, [r0, #12]
 80019cc:	f043 4380 	orr.w	r3, r3, #1073741824	; 0x40000000
 80019d0:	60c3      	str	r3, [r0, #12]
 80019d2:	460c      	mov	r4, r1
 80019d4:	2001      	movs	r0, #1
 80019d6:	f7ff f8bd 	bl	8000b54 <HAL_Delay>
 80019da:	696b      	ldr	r3, [r5, #20]
 80019dc:	07da      	lsls	r2, r3, #31
 80019de:	f104 0401 	add.w	r4, r4, #1
 80019e2:	d502      	bpl.n	80019ea <USB_SetCurrentMode+0x56>
 80019e4:	2c32      	cmp	r4, #50	; 0x32
 80019e6:	d1f5      	bne.n	80019d4 <USB_SetCurrentMode+0x40>
 80019e8:	e7eb      	b.n	80019c2 <USB_SetCurrentMode+0x2e>
 80019ea:	f1a4 0332 	sub.w	r3, r4, #50	; 0x32
 80019ee:	4258      	negs	r0, r3
 80019f0:	4158      	adcs	r0, r3
 80019f2:	e7e7      	b.n	80019c4 <USB_SetCurrentMode+0x30>

080019f4 <USB_FlushTxFifo>:
 80019f4:	b082      	sub	sp, #8
 80019f6:	2300      	movs	r3, #0
 80019f8:	4a10      	ldr	r2, [pc, #64]	; (8001a3c <USB_FlushTxFifo+0x48>)
 80019fa:	9301      	str	r3, [sp, #4]
 80019fc:	9b01      	ldr	r3, [sp, #4]
 80019fe:	3301      	adds	r3, #1
 8001a00:	9301      	str	r3, [sp, #4]
 8001a02:	9b01      	ldr	r3, [sp, #4]
 8001a04:	4293      	cmp	r3, r2
 8001a06:	d816      	bhi.n	8001a36 <USB_FlushTxFifo+0x42>
 8001a08:	6903      	ldr	r3, [r0, #16]
 8001a0a:	2b00      	cmp	r3, #0
 8001a0c:	daf6      	bge.n	80019fc <USB_FlushTxFifo+0x8>
 8001a0e:	0189      	lsls	r1, r1, #6
 8001a10:	2300      	movs	r3, #0
 8001a12:	f041 0120 	orr.w	r1, r1, #32
 8001a16:	4a09      	ldr	r2, [pc, #36]	; (8001a3c <USB_FlushTxFifo+0x48>)
 8001a18:	9301      	str	r3, [sp, #4]
 8001a1a:	6101      	str	r1, [r0, #16]
 8001a1c:	9b01      	ldr	r3, [sp, #4]
 8001a1e:	3301      	adds	r3, #1
 8001a20:	9301      	str	r3, [sp, #4]
 8001a22:	9b01      	ldr	r3, [sp, #4]
 8001a24:	4293      	cmp	r3, r2
 8001a26:	d806      	bhi.n	8001a36 <USB_FlushTxFifo+0x42>
 8001a28:	6903      	ldr	r3, [r0, #16]
 8001a2a:	f013 0320 	ands.w	r3, r3, #32
 8001a2e:	d1f5      	bne.n	8001a1c <USB_FlushTxFifo+0x28>
 8001a30:	4618      	mov	r0, r3
 8001a32:	b002      	add	sp, #8
 8001a34:	4770      	bx	lr
 8001a36:	2003      	movs	r0, #3
 8001a38:	e7fb      	b.n	8001a32 <USB_FlushTxFifo+0x3e>
 8001a3a:	bf00      	nop
 8001a3c:	00030d40 	.word	0x00030d40

08001a40 <USB_FlushRxFifo>:
 8001a40:	b082      	sub	sp, #8
 8001a42:	2300      	movs	r3, #0
 8001a44:	4a0f      	ldr	r2, [pc, #60]	; (8001a84 <USB_FlushRxFifo+0x44>)
 8001a46:	9301      	str	r3, [sp, #4]
 8001a48:	9b01      	ldr	r3, [sp, #4]
 8001a4a:	3301      	adds	r3, #1
 8001a4c:	9301      	str	r3, [sp, #4]
 8001a4e:	9b01      	ldr	r3, [sp, #4]
 8001a50:	4293      	cmp	r3, r2
 8001a52:	d814      	bhi.n	8001a7e <USB_FlushRxFifo+0x3e>
 8001a54:	6903      	ldr	r3, [r0, #16]
 8001a56:	2b00      	cmp	r3, #0
 8001a58:	daf6      	bge.n	8001a48 <USB_FlushRxFifo+0x8>
 8001a5a:	2300      	movs	r3, #0
 8001a5c:	9301      	str	r3, [sp, #4]
 8001a5e:	4a09      	ldr	r2, [pc, #36]	; (8001a84 <USB_FlushRxFifo+0x44>)
 8001a60:	2310      	movs	r3, #16
 8001a62:	6103      	str	r3, [r0, #16]
 8001a64:	9b01      	ldr	r3, [sp, #4]
 8001a66:	3301      	adds	r3, #1
 8001a68:	9301      	str	r3, [sp, #4]
 8001a6a:	9b01      	ldr	r3, [sp, #4]
 8001a6c:	4293      	cmp	r3, r2
 8001a6e:	d806      	bhi.n	8001a7e <USB_FlushRxFifo+0x3e>
 8001a70:	6903      	ldr	r3, [r0, #16]
 8001a72:	f013 0310 	ands.w	r3, r3, #16
 8001a76:	d1f5      	bne.n	8001a64 <USB_FlushRxFifo+0x24>
 8001a78:	4618      	mov	r0, r3
 8001a7a:	b002      	add	sp, #8
 8001a7c:	4770      	bx	lr
 8001a7e:	2003      	movs	r0, #3
 8001a80:	e7fb      	b.n	8001a7a <USB_FlushRxFifo+0x3a>
 8001a82:	bf00      	nop
 8001a84:	00030d40 	.word	0x00030d40

08001a88 <USB_SetDevSpeed>:
 8001a88:	f8d0 3800 	ldr.w	r3, [r0, #2048]	; 0x800
 8001a8c:	4319      	orrs	r1, r3
 8001a8e:	f8c0 1800 	str.w	r1, [r0, #2048]	; 0x800
 8001a92:	2000      	movs	r0, #0
 8001a94:	4770      	bx	lr
	...

08001a98 <USB_DevInit>:
 8001a98:	b084      	sub	sp, #16
 8001a9a:	e92d 43f8 	stmdb	sp!, {r3, r4, r5, r6, r7, r8, r9, lr}
 8001a9e:	4604      	mov	r4, r0
 8001aa0:	a809      	add	r0, sp, #36	; 0x24
 8001aa2:	e880 000e 	stmia.w	r0, {r1, r2, r3}
 8001aa6:	9d13      	ldr	r5, [sp, #76]	; 0x4c
 8001aa8:	2300      	movs	r3, #0
 8001aaa:	460e      	mov	r6, r1
 8001aac:	4619      	mov	r1, r3
 8001aae:	f103 0240 	add.w	r2, r3, #64	; 0x40
 8001ab2:	eb04 0282 	add.w	r2, r4, r2, lsl #2
 8001ab6:	3301      	adds	r3, #1
 8001ab8:	2b0f      	cmp	r3, #15
 8001aba:	6051      	str	r1, [r2, #4]
 8001abc:	d1f7      	bne.n	8001aae <USB_DevInit+0x16>
 8001abe:	f504 6700 	add.w	r7, r4, #2048	; 0x800
 8001ac2:	2d00      	cmp	r5, #0
 8001ac4:	d16c      	bne.n	8001ba0 <USB_DevInit+0x108>
 8001ac6:	687b      	ldr	r3, [r7, #4]
 8001ac8:	f043 0302 	orr.w	r3, r3, #2
 8001acc:	607b      	str	r3, [r7, #4]
 8001ace:	6ba3      	ldr	r3, [r4, #56]	; 0x38
 8001ad0:	f443 1300 	orr.w	r3, r3, #2097152	; 0x200000
 8001ad4:	63a3      	str	r3, [r4, #56]	; 0x38
 8001ad6:	6ba3      	ldr	r3, [r4, #56]	; 0x38
 8001ad8:	f423 2300 	bic.w	r3, r3, #524288	; 0x80000
 8001adc:	63a3      	str	r3, [r4, #56]	; 0x38
 8001ade:	6ba3      	ldr	r3, [r4, #56]	; 0x38
 8001ae0:	f423 2380 	bic.w	r3, r3, #262144	; 0x40000
 8001ae4:	63a3      	str	r3, [r4, #56]	; 0x38
 8001ae6:	2300      	movs	r3, #0
 8001ae8:	f8c4 3e00 	str.w	r3, [r4, #3584]	; 0xe00
 8001aec:	f8d4 3800 	ldr.w	r3, [r4, #2048]	; 0x800
 8001af0:	f8c4 3800 	str.w	r3, [r4, #2048]	; 0x800
 8001af4:	9b0e      	ldr	r3, [sp, #56]	; 0x38
 8001af6:	2b01      	cmp	r3, #1
 8001af8:	d15c      	bne.n	8001bb4 <USB_DevInit+0x11c>
 8001afa:	990b      	ldr	r1, [sp, #44]	; 0x2c
 8001afc:	2900      	cmp	r1, #0
 8001afe:	d157      	bne.n	8001bb0 <USB_DevInit+0x118>
 8001b00:	4620      	mov	r0, r4
 8001b02:	f7ff ffc1 	bl	8001a88 <USB_SetDevSpeed>
 8001b06:	2110      	movs	r1, #16
 8001b08:	4620      	mov	r0, r4
 8001b0a:	f7ff ff73 	bl	80019f4 <USB_FlushTxFifo>
 8001b0e:	4601      	mov	r1, r0
 8001b10:	4620      	mov	r0, r4
 8001b12:	f7ff ff95 	bl	8001a40 <USB_FlushRxFifo>
 8001b16:	4308      	orrs	r0, r1
 8001b18:	b2c0      	uxtb	r0, r0
 8001b1a:	2300      	movs	r3, #0
 8001b1c:	3800      	subs	r0, #0
 8001b1e:	613b      	str	r3, [r7, #16]
 8001b20:	bf18      	it	ne
 8001b22:	2001      	movne	r0, #1
 8001b24:	617b      	str	r3, [r7, #20]
 8001b26:	f504 6210 	add.w	r2, r4, #2304	; 0x900
 8001b2a:	61fb      	str	r3, [r7, #28]
 8001b2c:	4619      	mov	r1, r3
 8001b2e:	f04f 4c90 	mov.w	ip, #1207959552	; 0x48000000
 8001b32:	f04f 6e00 	mov.w	lr, #134217728	; 0x8000000
 8001b36:	f64f 387f 	movw	r8, #64383	; 0xfb7f
 8001b3a:	42b3      	cmp	r3, r6
 8001b3c:	d13c      	bne.n	8001bb8 <USB_DevInit+0x120>
 8001b3e:	2200      	movs	r2, #0
 8001b40:	f504 6330 	add.w	r3, r4, #2816	; 0xb00
 8001b44:	4611      	mov	r1, r2
 8001b46:	f04f 4c90 	mov.w	ip, #1207959552	; 0x48000000
 8001b4a:	f04f 6e00 	mov.w	lr, #134217728	; 0x8000000
 8001b4e:	f64f 387f 	movw	r8, #64383	; 0xfb7f
 8001b52:	42b2      	cmp	r2, r6
 8001b54:	d143      	bne.n	8001bde <USB_DevInit+0x146>
 8001b56:	693b      	ldr	r3, [r7, #16]
 8001b58:	f423 7380 	bic.w	r3, r3, #256	; 0x100
 8001b5c:	613b      	str	r3, [r7, #16]
 8001b5e:	2300      	movs	r3, #0
 8001b60:	61a3      	str	r3, [r4, #24]
 8001b62:	f06f 4380 	mvn.w	r3, #1073741824	; 0x40000000
 8001b66:	6163      	str	r3, [r4, #20]
 8001b68:	9b0c      	ldr	r3, [sp, #48]	; 0x30
 8001b6a:	b91b      	cbnz	r3, 8001b74 <USB_DevInit+0xdc>
 8001b6c:	69a3      	ldr	r3, [r4, #24]
 8001b6e:	f043 0310 	orr.w	r3, r3, #16
 8001b72:	61a3      	str	r3, [r4, #24]
 8001b74:	69a2      	ldr	r2, [r4, #24]
 8001b76:	4b23      	ldr	r3, [pc, #140]	; (8001c04 <USB_DevInit+0x16c>)
 8001b78:	4313      	orrs	r3, r2
 8001b7a:	61a3      	str	r3, [r4, #24]
 8001b7c:	9b0f      	ldr	r3, [sp, #60]	; 0x3c
 8001b7e:	b11b      	cbz	r3, 8001b88 <USB_DevInit+0xf0>
 8001b80:	69a3      	ldr	r3, [r4, #24]
 8001b82:	f043 0308 	orr.w	r3, r3, #8
 8001b86:	61a3      	str	r3, [r4, #24]
 8001b88:	2d01      	cmp	r5, #1
 8001b8a:	bf01      	itttt	eq
 8001b8c:	69a3      	ldreq	r3, [r4, #24]
 8001b8e:	f043 4380 	orreq.w	r3, r3, #1073741824	; 0x40000000
 8001b92:	f043 0304 	orreq.w	r3, r3, #4
 8001b96:	61a3      	streq	r3, [r4, #24]
 8001b98:	e8bd 43f8 	ldmia.w	sp!, {r3, r4, r5, r6, r7, r8, r9, lr}
 8001b9c:	b004      	add	sp, #16
 8001b9e:	4770      	bx	lr
 8001ba0:	6ba3      	ldr	r3, [r4, #56]	; 0x38
 8001ba2:	f423 1300 	bic.w	r3, r3, #2097152	; 0x200000
 8001ba6:	63a3      	str	r3, [r4, #56]	; 0x38
 8001ba8:	6ba3      	ldr	r3, [r4, #56]	; 0x38
 8001baa:	f443 2300 	orr.w	r3, r3, #524288	; 0x80000
 8001bae:	e799      	b.n	8001ae4 <USB_DevInit+0x4c>
 8001bb0:	4619      	mov	r1, r3
 8001bb2:	e7a5      	b.n	8001b00 <USB_DevInit+0x68>
 8001bb4:	2103      	movs	r1, #3
 8001bb6:	e7a3      	b.n	8001b00 <USB_DevInit+0x68>
 8001bb8:	f8d2 9000 	ldr.w	r9, [r2]
 8001bbc:	f1b9 0f00 	cmp.w	r9, #0
 8001bc0:	da0b      	bge.n	8001bda <USB_DevInit+0x142>
 8001bc2:	b93b      	cbnz	r3, 8001bd4 <USB_DevInit+0x13c>
 8001bc4:	f8c2 e000 	str.w	lr, [r2]
 8001bc8:	6111      	str	r1, [r2, #16]
 8001bca:	3301      	adds	r3, #1
 8001bcc:	f8c2 8008 	str.w	r8, [r2, #8]
 8001bd0:	3220      	adds	r2, #32
 8001bd2:	e7b2      	b.n	8001b3a <USB_DevInit+0xa2>
 8001bd4:	f8c2 c000 	str.w	ip, [r2]
 8001bd8:	e7f6      	b.n	8001bc8 <USB_DevInit+0x130>
 8001bda:	6011      	str	r1, [r2, #0]
 8001bdc:	e7f4      	b.n	8001bc8 <USB_DevInit+0x130>
 8001bde:	f8d3 9000 	ldr.w	r9, [r3]
 8001be2:	f1b9 0f00 	cmp.w	r9, #0
 8001be6:	da0b      	bge.n	8001c00 <USB_DevInit+0x168>
 8001be8:	b93a      	cbnz	r2, 8001bfa <USB_DevInit+0x162>
 8001bea:	f8c3 e000 	str.w	lr, [r3]
 8001bee:	6119      	str	r1, [r3, #16]
 8001bf0:	3201      	adds	r2, #1
 8001bf2:	f8c3 8008 	str.w	r8, [r3, #8]
 8001bf6:	3320      	adds	r3, #32
 8001bf8:	e7ab      	b.n	8001b52 <USB_DevInit+0xba>
 8001bfa:	f8c3 c000 	str.w	ip, [r3]
 8001bfe:	e7f6      	b.n	8001bee <USB_DevInit+0x156>
 8001c00:	6019      	str	r1, [r3, #0]
 8001c02:	e7f4      	b.n	8001bee <USB_DevInit+0x156>
 8001c04:	803c3800 	.word	0x803c3800

08001c08 <USB_DevDisconnect>:
 8001c08:	f8d0 3e00 	ldr.w	r3, [r0, #3584]	; 0xe00
 8001c0c:	f023 0303 	bic.w	r3, r3, #3
 8001c10:	f8c0 3e00 	str.w	r3, [r0, #3584]	; 0xe00
 8001c14:	f8d0 3804 	ldr.w	r3, [r0, #2052]	; 0x804
 8001c18:	f043 0302 	orr.w	r3, r3, #2
 8001c1c:	f8c0 3804 	str.w	r3, [r0, #2052]	; 0x804
 8001c20:	2000      	movs	r0, #0
 8001c22:	4770      	bx	lr

08001c24 <memset>:
 8001c24:	4402      	add	r2, r0
 8001c26:	4603      	mov	r3, r0
 8001c28:	4293      	cmp	r3, r2
 8001c2a:	d100      	bne.n	8001c2e <memset+0xa>
 8001c2c:	4770      	bx	lr
 8001c2e:	f803 1b01 	strb.w	r1, [r3], #1
 8001c32:	e7f9      	b.n	8001c28 <memset+0x4>

08001c34 <__libc_init_array>:
 8001c34:	b570      	push	{r4, r5, r6, lr}
 8001c36:	4d0d      	ldr	r5, [pc, #52]	; (8001c6c <__libc_init_array+0x38>)
 8001c38:	4c0d      	ldr	r4, [pc, #52]	; (8001c70 <__libc_init_array+0x3c>)
 8001c3a:	1b64      	subs	r4, r4, r5
 8001c3c:	10a4      	asrs	r4, r4, #2
 8001c3e:	2600      	movs	r6, #0
 8001c40:	42a6      	cmp	r6, r4
 8001c42:	d109      	bne.n	8001c58 <__libc_init_array+0x24>
 8001c44:	4d0b      	ldr	r5, [pc, #44]	; (8001c74 <__libc_init_array+0x40>)
 8001c46:	4c0c      	ldr	r4, [pc, #48]	; (8001c78 <__libc_init_array+0x44>)
 8001c48:	f000 f818 	bl	8001c7c <_init>
 8001c4c:	1b64      	subs	r4, r4, r5
 8001c4e:	10a4      	asrs	r4, r4, #2
 8001c50:	2600      	movs	r6, #0
 8001c52:	42a6      	cmp	r6, r4
 8001c54:	d105      	bne.n	8001c62 <__libc_init_array+0x2e>
 8001c56:	bd70      	pop	{r4, r5, r6, pc}
 8001c58:	f855 3b04 	ldr.w	r3, [r5], #4
 8001c5c:	4798      	blx	r3
 8001c5e:	3601      	adds	r6, #1
 8001c60:	e7ee      	b.n	8001c40 <__libc_init_array+0xc>
 8001c62:	f855 3b04 	ldr.w	r3, [r5], #4
 8001c66:	4798      	blx	r3
 8001c68:	3601      	adds	r6, #1
 8001c6a:	e7f2      	b.n	8001c52 <__libc_init_array+0x1e>
 8001c6c:	08001cd8 	.word	0x08001cd8
 8001c70:	08001cd8 	.word	0x08001cd8
 8001c74:	08001cd8 	.word	0x08001cd8
 8001c78:	08001cdc 	.word	0x08001cdc

08001c7c <_init>:
 8001c7c:	b5f8      	push	{r3, r4, r5, r6, r7, lr}
 8001c7e:	bf00      	nop
 8001c80:	bcf8      	pop	{r3, r4, r5, r6, r7}
 8001c82:	bc08      	pop	{r3}
 8001c84:	469e      	mov	lr, r3
 8001c86:	4770      	bx	lr

08001c88 <_fini>:
 8001c88:	b5f8      	push	{r3, r4, r5, r6, r7, lr}
 8001c8a:	bf00      	nop
 8001c8c:	bcf8      	pop	{r3, r4, r5, r6, r7}
 8001c8e:	bc08      	pop	{r3}
 8001c90:	469e      	mov	lr, r3
 8001c92:	4770      	bx	lr
